MODULE windows x86_64 506E1250BCEE48C1807A06E7A3A4EB518 crashpadReporterExample.pdb
INFO CODE_ID 669956F833000 crashpadReporterExample.exe
FUNC 1000 23 0 static void `dynamic initializer for 'Singleton<crashpadHandler>::tptr''()
FUNC 1030 55 0 static void `dynamic initializer for 'TestThread::staticMetaObject''()
FUNC 1090 55 0 static void `dynamic initializer for 'crashPadReporterExample::staticMetaObject''()
FUNC 10f0 4 0 operator new(unsigned __int64,void *)
FUNC 1100 13 0 stdext::exception::what()
FUNC 1120 3d 0 stdext::exception::_Raise()
FUNC m 1160 3 0 guard_check_icall_nop
FUNC m 1170 2b 0 stdext::bad_array_new_length::`scalar deleting destructor'(unsigned int)
FUNC 11a0 1e 0 stdext::bad_alloc::_Doraise()
FUNC 11c0 19 0 stdext::bad_array_new_length::bad_array_new_length()
FUNC 11e0 17 0 std::_Throw_bad_array_new_length()
FUNC m 1200 4 0 std::_Fake_proxy_ptr_impl::_Fake_proxy_ptr_impl(std::_Fake_allocator const &,std::_Container_base0 const &)
FUNC 1210 12 0 std::_Xlen_string()
FUNC 1230 71 0 static unsigned __int64 base::`anonymous namespace'::FindDriveLetter(const class std::basic_string<wchar_t,std::char_traits<wchar_t>,std::allocator<wchar_t> > & const)
FUNC 12b0 398 0 static bool base::`anonymous namespace'::EqualDriveLetterCaseInsensitive(const class std::basic_string<wchar_t,std::char_traits<wchar_t>,std::allocator<wchar_t> > & const, const class std::basic_string<wchar_t,std::char_traits<wchar_t>,std::allocator<wchar_t> > & const)
FUNC 1650 a8 0 base::FilePath::FilePath(std::basic_string<wchar_t,std::char_traits<wchar_t>,std::allocator<wchar_t> > const &)
FUNC m 1700 62 0 base::FilePath::~FilePath()
FUNC 1770 16b 0 base::FilePath::DirName()
FUNC 18e0 b6 0 base::FilePath::BaseName()
FUNC 19a0 39f 0 base::FilePath::FinalExtension()
FUNC 1d40 1ce 0 base::FilePath::RemoveFinalExtension()
FUNC 1f10 33b 0 base::FilePath::Append(std::basic_string<wchar_t,std::char_traits<wchar_t>,std::allocator<wchar_t> > const &)
FUNC 2250 10b 0 base::FilePath::StripTrailingSeparatorsInternal()
FUNC 2360 161 0 std::basic_string<wchar_t,std::char_traits<wchar_t>,std::allocator<wchar_t> >::find_last_of(wchar_t const * const,unsigned __int64,unsigned __int64)
FUNC 24d0 17c 0 std::basic_string<wchar_t,std::char_traits<wchar_t>,std::allocator<wchar_t> >::append(unsigned __int64,wchar_t)
FUNC 2650 9c 0 std::basic_string<wchar_t,std::char_traits<wchar_t>,std::allocator<wchar_t> >::basic_string<wchar_t,std::char_traits<wchar_t>,std::allocator<wchar_t> >(std::basic_string<wchar_t,std::char_traits<wchar_t>,std::allocator<wchar_t> > const &)
FUNC 26f0 121 0 std::basic_string<wchar_t,std::char_traits<wchar_t>,std::allocator<wchar_t> >::assign(wchar_t const * const,unsigned __int64)
FUNC 2820 172 0 std::basic_string<wchar_t,std::char_traits<wchar_t>,std::allocator<wchar_t> >::append(wchar_t const * const,unsigned __int64)
FUNC m 29a0 12 0 std::_String_val<std::_Simple_types<char> >::_Xran()
FUNC 29c0 6c 0 std::allocator<wchar_t>::allocate(unsigned __int64)
FUNC 2a30 3f 0 std::allocator<wchar_t>::deallocate(wchar_t * const,unsigned __int64)
FUNC 2a70 1ae 0 std::operator<<<std::char_traits<char> >(std::basic_ostream<char,std::char_traits<char> > &,char const *)
FUNC 2c20 8 0 _local_stdio_printf_options
FUNC 2c30 ed 0 logging::LogMessage::LogMessage(char const *,char const *,int,std::basic_string<char,std::char_traits<char>,std::allocator<char> > *)
FUNC 2d20 17d 0 logging::LogMessage::~LogMessage()
FUNC 2ea0 5c3 0 logging::LogMessage::Init(char const *)
FUNC 3470 204 0 logging::Win32ErrorLogMessage::~Win32ErrorLogMessage()
FUNC 3680 e9 0 std::basic_stringbuf<char,std::char_traits<char>,std::allocator<char> >::seekpos(std::fpos<_Mbstatet>,int)
FUNC 3770 154 0 std::basic_stringbuf<char,std::char_traits<char>,std::allocator<char> >::seekoff(__int64,int,int)
FUNC 38d0 65 0 std::basic_stringbuf<char,std::char_traits<char>,std::allocator<char> >::underflow()
FUNC 3940 52 0 std::basic_stringbuf<char,std::char_traits<char>,std::allocator<char> >::pbackfail(int)
FUNC 39a0 1a5 0 std::basic_stringbuf<char,std::char_traits<char>,std::allocator<char> >::overflow(int)
FUNC 3b50 b7 0 std::basic_stringbuf<char,std::char_traits<char>,std::allocator<char> >::~basic_stringbuf<char,std::char_traits<char>,std::allocator<char> >()
FUNC 3c10 8c 0 std::basic_ostringstream<char,std::char_traits<char>,std::allocator<char> >::basic_ostringstream<char,std::char_traits<char>,std::allocator<char> >()
FUNC 3ca0 5f 0 std::basic_string<char,std::char_traits<char>,std::allocator<char> >::~basic_string<char,std::char_traits<char>,std::allocator<char> >()
FUNC 3d00 2a 0 std::basic_string<char,std::char_traits<char>,std::allocator<char> >::basic_string<char,std::char_traits<char>,std::allocator<char> >(std::basic_string<char,std::char_traits<char>,std::allocator<char> > &&)
FUNC 3d30 3b 0 std::basic_string<char,std::char_traits<char>,std::allocator<char> >::basic_string<char,std::char_traits<char>,std::allocator<char> >(char const * const)
FUNC 3d70 34 0 std::basic_stringbuf<char,std::char_traits<char>,std::allocator<char> >::`scalar deleting destructor'(unsigned int)
FUNC 3db0 92 0 std::basic_ostringstream<char,std::char_traits<char>,std::allocator<char> >::`scalar deleting destructor'(unsigned int)
FUNC 3e50 15d 0 std::basic_string<char,std::char_traits<char>,std::allocator<char> >::assign(char const * const,unsigned __int64)
FUNC 3fb0 8c 0 std::basic_string<char,std::char_traits<char>,std::allocator<char> >::operator=(std::basic_string<char,std::char_traits<char>,std::allocator<char> > &&)
FUNC 4040 59 0 std::allocator<char>::allocate(unsigned __int64)
FUNC 40a0 3e 0 std::allocator<char>::deallocate(char * const,unsigned __int64)
FUNC 40e0 16d 0 std::operator<<<std::char_traits<char> >(std::basic_ostream<char,std::char_traits<char> > &,char)
FUNC 4250 39 0 std::endl<char,std::char_traits<char> >(std::basic_ostream<char,std::char_traits<char> > &)
FUNC 4290 193 0 std::_Insert_string<char,std::char_traits<char>,unsigned __int64>(std::basic_ostream<char,std::char_traits<char> > &,char const * const,unsigned __int64)
PUBLIC 4424 0 [thunk]:std::basic_ostringstream<char,std::char_traits<char>,std::allocator<char> >::`vector deleting destructor'`vtordisp{4294967292,0}' (unsigned int)
FUNC 4430 163 0 base::UTF16ToUTF8(wchar_t const *,unsigned __int64,std::basic_string<char,std::char_traits<char>,std::allocator<char> > *)
FUNC 45a0 156 0 static bool `anonymous namespace'::ConvertUnicode<char,std::basic_string<wchar_t,std::char_traits<wchar_t>,std::allocator<wchar_t> > >(const char *, unsigned __int64, class std::basic_string<wchar_t,std::char_traits<wchar_t>,std::allocator<wchar_t> > *)
FUNC 4700 3d 0 base::StringPrintf(char const *,...)
FUNC 4740 80 0 std::basic_string<char,std::char_traits<char>,std::allocator<char> >::append(char const * const,unsigned __int64)
FUNC 47c0 30e 0 static void base::`anonymous namespace'::StringAppendVT<std::basic_string<char,std::char_traits<char>,std::allocator<char> > >(class std::basic_string<char,std::char_traits<char>,std::allocator<char> > *, const char *, char *)
FUNC 4ad0 187 0 class std::basic_string<char,std::char_traits<char>,std::allocator<char> > & const std::basic_string<char,std::char_traits<char>,std::allocator<char> >::_Reallocate_grow_by<<lambda_65e615be2a453ca0576c979606f46740>,char const *,unsigned __int64>(const unsigned __int64, class std::basic_string<char,std::char_traits<char>,std::allocator<char> >::append::__l2::<lambda_65e615be2a453ca0576c979606f46740>, const char *, unsigned __int64)
FUNC 4c60 156 0 base::WriteUnicodeCharacter(unsigned int,std::basic_string<char,std::char_traits<char>,std::allocator<char> > *)
FUNC 4dc0 b8 0 base::WriteUnicodeCharacter(unsigned int,std::basic_string<wchar_t,std::char_traits<wchar_t>,std::allocator<wchar_t> > *)
FUNC 4e80 8e 0 std::basic_string<char,std::char_traits<char>,std::allocator<char> >::resize(unsigned __int64,char)
FUNC 4f10 163 0 std::basic_string<char,std::char_traits<char>,std::allocator<char> >::_Reallocate_grow_by<<lambda_319d5e083f45f90dcdce5dce53cbb275>,char>(unsigned __int64,<lambda_319d5e083f45f90dcdce5dce53cbb275>,char)
FUNC 5080 188 0 std::basic_string<char,std::char_traits<char>,std::allocator<char> >::_Reallocate_grow_by<<lambda_e1befb086ad3257e3f042a63030725f7>,unsigned __int64,char>(unsigned __int64,<lambda_e1befb086ad3257e3f042a63030725f7>,unsigned __int64,char)
FUNC 5210 188 0 std::basic_string<wchar_t,std::char_traits<wchar_t>,std::allocator<wchar_t> >::reserve(unsigned __int64)
FUNC 53a0 154 0 std::basic_string<wchar_t,std::char_traits<wchar_t>,std::allocator<wchar_t> >::push_back(wchar_t)
FUNC 5500 a7 0 std::basic_string<char,std::char_traits<char>,std::allocator<char> >::reserve(unsigned __int64)
FUNC 55b0 144 0 std::basic_string<char,std::char_traits<char>,std::allocator<char> >::_Reallocate_grow_by<<lambda_9013ee9e23efe4882b67eff5b0ecf103> >(unsigned __int64,<lambda_9013ee9e23efe4882b67eff5b0ecf103>)
FUNC 5700 19f 0 base_icu::utf8_nextCharSafeBody(unsigned char const *,int *,int,int,signed char)
FUNC 58a0 12 0 std::_Throw_tree_length_error()
FUNC m 58c0 3 0 _scrt_initialize_winrt
FUNC 58d0 2b 0 crashpad::CrashReportDatabase::`scalar deleting destructor'(unsigned int)
FUNC 5900 80 0 static unsigned int crashpad::`anonymous namespace'::AddStringToTable(class std::basic_string<char,std::char_traits<char>,std::allocator<char> > *, const class std::basic_string<char,std::char_traits<char>,std::allocator<char> > & const)
FUNC 5980 407 0 static class std::basic_string<char,std::char_traits<char>,std::allocator<char> > crashpad::`anonymous namespace'::ReadRestOfFileAsString(void *)
FUNC 5d90 1d1 0 static void crashpad::`anonymous namespace'::MetadataFileReportRecord::MetadataFileReportRecord(const struct crashpad::`anonymous-namespace'::ReportDisk & const, class std::basic_string<char,std::char_traits<char>,std::allocator<char> > *)
FUNC 5f70 23c 0 static void crashpad::`anonymous namespace'::ReportDisk::ReportDisk(const struct crashpad::`anonymous-namespace'::MetadataFileReportRecord & const, const class base::FilePath & const, const class std::basic_string<char,std::char_traits<char>,std::allocator<char> > & const)
FUNC 61b0 b4 0 crashpad::CrashReportDatabase::Report::~Report()
FUNC 6270 ef 0 static crashpad::CrashReportDatabase::OperationStatus crashpad::`anonymous namespace'::Metadata::FindReports(crashpad::`anonymous-namespace'::ReportState, class std::vector<crashpad::CrashReportDatabase::Report,std::allocator<crashpad::CrashReportDatabase::Report> > *)
FUNC 6360 b7 0 static crashpad::CrashReportDatabase::OperationStatus crashpad::`anonymous namespace'::Metadata::FindSingleReportAndMarkDirty(const struct crashpad::UUID & const, crashpad::`anonymous-namespace'::ReportState, struct crashpad::`anonymous-namespace'::ReportDisk * *)
FUNC 6420 cf 0 static bool crashpad::`anonymous namespace'::Metadata::Rewind()
FUNC 64f0 92a 0 static void crashpad::`anonymous namespace'::Metadata::Read()
FUNC 6e20 78f 0 static void crashpad::`anonymous namespace'::Metadata::Write()
FUNC 75b0 234 0 static bool crashpad::`anonymous namespace'::EnsureDirectory(const class base::FilePath & const)
FUNC 77f0 18b 0 static bool crashpad::`anonymous namespace'::CreateDirectoryIfNecessary(const class base::FilePath & const)
FUNC 7980 193 0 crashpad::CrashReportDatabaseWin::AttachmentsPath(crashpad::UUID const &)
FUNC 7b20 a1b 0 crashpad::CrashReportDatabase::UploadReport::InitializeAttachments()
FUNC 8540 f7 0 crashpad::CrashReportDatabaseWin::`scalar deleting destructor'(unsigned int)
FUNC 8640 2aa 0 crashpad::CrashReportDatabaseWin::Initialize(bool)
FUNC 88f0 5 0 crashpad::CrashReportDatabaseWin::GetSettings()
FUNC 8900 3cb 0 crashpad::CrashReportDatabaseWin::PrepareNewCrashReport(std::unique_ptr<crashpad::CrashReportDatabase::NewReport,std::default_delete<crashpad::CrashReportDatabase::NewReport> > *)
FUNC 8cd0 578 0 crashpad::CrashReportDatabaseWin::FinishedWritingCrashReport(std::unique_ptr<crashpad::CrashReportDatabase::NewReport,std::default_delete<crashpad::CrashReportDatabase::NewReport> >,crashpad::UUID *)
FUNC 9250 c8 0 crashpad::CrashReportDatabaseWin::LookUpCrashReport(crashpad::UUID const &,crashpad::CrashReportDatabase::Report *)
FUNC 9320 96 0 crashpad::CrashReportDatabase::Report::operator=(crashpad::CrashReportDatabase::Report const &)
FUNC 93c0 62 0 crashpad::CrashReportDatabaseWin::GetPendingReports(std::vector<crashpad::CrashReportDatabase::Report,std::allocator<crashpad::CrashReportDatabase::Report> > *)
FUNC 9430 65 0 crashpad::CrashReportDatabaseWin::GetCompletedReports(std::vector<crashpad::CrashReportDatabase::Report,std::allocator<crashpad::CrashReportDatabase::Report> > *)
FUNC 94a0 23c 0 crashpad::CrashReportDatabaseWin::GetReportForUploading(crashpad::UUID const &,std::unique_ptr<crashpad::CrashReportDatabase::UploadReport const ,std::default_delete<crashpad::CrashReportDatabase::UploadReport const > > *,bool)
FUNC 96e0 185 0 crashpad::CrashReportDatabaseWin::RecordUploadAttempt(crashpad::CrashReportDatabase::UploadReport *,bool,std::basic_string<char,std::char_traits<char>,std::allocator<char> > const &)
FUNC 9870 28b 0 crashpad::CrashReportDatabaseWin::DeleteReport(crashpad::UUID const &)
FUNC 9b00 594 0 crashpad::CrashReportDatabaseWin::RemoveAttachmentsByUUID(crashpad::UUID const &)
FUNC a0a0 7b 0 crashpad::CrashReportDatabaseWin::SkipReportUpload(crashpad::UUID const &,crashpad::Metrics::CrashSkippedReason)
FUNC a120 351 0 static class std::unique_ptr<crashpad::`anonymous namespace'::Metadata,std::default_delete<crashpad::`anonymous namespace'::Metadata> > crashpad::CrashReportDatabaseWin::AcquireMetadata()
FUNC a480 af 0 crashpad::CrashReportDatabaseWin::RequestUpload(crashpad::UUID const &)
FUNC a530 87b 0 crashpad::CrashReportDatabaseWin::CleanDatabase(__int64)
FUNC adb0 693 0 crashpad::CrashReportDatabaseWin::CleanOrphanedAttachments()
FUNC b450 91 0 crashpad::CrashReportDatabase::Initialize(base::FilePath const &)
FUNC b4f0 14 0 std::unique_ptr<crashpad::CrashReportDatabase,std::default_delete<crashpad::CrashReportDatabase> >::~unique_ptr<crashpad::CrashReportDatabase,std::default_delete<crashpad::CrashReportDatabase> >()
FUNC b510 166 0 static void std::unique_ptr<crashpad::`anonymous namespace'::Metadata,std::default_delete<crashpad::`anonymous namespace'::Metadata> >::~unique_ptr<crashpad::`anonymous namespace'::Metadata,std::default_delete<crashpad::`anonymous namespace'::Metadata> >()
FUNC b680 108 0 static class std::_Vector_iterator<std::_Vector_val<std::_Simple_types<crashpad::`anonymous namespace'::ReportDisk> > > std::vector<crashpad::`anonymous namespace'::ReportDisk,std::allocator<crashpad::`anonymous namespace'::ReportDisk> >::erase(class std::_Vector_const_iterator<std::_Vector_val<std::_Simple_types<crashpad::`anonymous namespace'::ReportDisk> > >)
FUNC b790 8f 0 static void std::vector<crashpad::`anonymous namespace'::ReportDisk,std::allocator<crashpad::`anonymous namespace'::ReportDisk> >::~vector<crashpad::`anonymous namespace'::ReportDisk,std::allocator<crashpad::`anonymous namespace'::ReportDisk> >()
FUNC b820 b9 0 base::ScopedGeneric<base::FilePath,crashpad::ScopedRemoveFileTraits>::release()
FUNC b8e0 da 0 std::basic_string<char,std::char_traits<char>,std::allocator<char> >::basic_string<char,std::char_traits<char>,std::allocator<char> >(std::basic_string<char,std::char_traits<char>,std::allocator<char> > const &)
FUNC b9c0 11b 0 std::default_delete<crashpad::CrashReportDatabase::NewReport>::operator()(crashpad::CrashReportDatabase::NewReport *)
FUNC m bae0 12 0 static void std::vector<crashpad::`anonymous namespace'::MetadataFileReportRecord,std::allocator<crashpad::`anonymous namespace'::MetadataFileReportRecord> >::_Xlength()
FUNC bb00 120 0 base::ScopedGeneric<base::FilePath,crashpad::ScopedRemoveFileTraits>::FreeIfNecessary()
FUNC bc20 162 0 std::basic_string<char,std::char_traits<char>,std::allocator<char> >::assign(unsigned __int64,char)
FUNC bd90 6c 0 static struct crashpad::`anonymous-namespace'::MetadataFileReportRecord * std::allocator<crashpad::`anonymous namespace'::MetadataFileReportRecord>::allocate(const unsigned __int64)
FUNC be00 b4 0 std::make_unique<crashpad::FileWriter,0>()
FUNC bec0 b4 0 std::make_unique<crashpad::FileReader,0>()
FUNC bf80 20e 0 std::vector<std::unique_ptr<crashpad::FileReader,std::default_delete<crashpad::FileReader> >,std::allocator<std::unique_ptr<crashpad::FileReader,std::default_delete<crashpad::FileReader> > > >::_Emplace_reallocate<std::unique_ptr<crashpad::FileReader,std::default_delete<crashpad::FileReader> > >(std::unique_ptr<crashpad::FileReader,std::default_delete<crashpad::FileReader> > * const,std::unique_ptr<crashpad::FileReader,std::default_delete<crashpad::FileReader> > &&)
FUNC c190 11 0 std::unique_ptr<crashpad::CrashReportDatabase,std::default_delete<crashpad::CrashReportDatabase> >::unique_ptr<crashpad::CrashReportDatabase,std::default_delete<crashpad::CrashReportDatabase> ><std::default_delete<crashpad::CrashReportDatabase>,0>(std::unique_ptr<crashpad::CrashReportDatabase,std::default_delete<crashpad::CrashReportDatabase> > &&)
FUNC c1b0 306 0 struct crashpad::CrashReportDatabase::Report * std::vector<crashpad::CrashReportDatabase::Report,std::allocator<crashpad::CrashReportDatabase::Report> >::_Emplace_reallocate<crashpad::CrashReportDatabase::Report const &>(struct crashpad::CrashReportDatabase::Report *, const struct crashpad::CrashReportDatabase::Report & const)
FUNC c4c0 283 0 static struct crashpad::`anonymous-namespace'::ReportDisk * std::vector<crashpad::`anonymous namespace'::ReportDisk,std::allocator<crashpad::`anonymous namespace'::ReportDisk> >::_Emplace_reallocate<crashpad::`anonymous namespace'::ReportDisk const &>(struct crashpad::`anonymous-namespace'::ReportDisk *, const struct crashpad::`anonymous-namespace'::ReportDisk & const)
FUNC m c750 12 0 std::vector<crashpad::CrashReportDatabase::Report,std::allocator<crashpad::CrashReportDatabase::Report> >::_Xlength()
FUNC c770 7e 0 static struct crashpad::`anonymous-namespace'::ReportDisk * std::vector<crashpad::`anonymous namespace'::ReportDisk,std::allocator<crashpad::`anonymous namespace'::ReportDisk> >::_Umove(struct crashpad::`anonymous-namespace'::ReportDisk *, struct crashpad::`anonymous-namespace'::ReportDisk *, struct crashpad::`anonymous-namespace'::ReportDisk *)
FUNC c7f0 27d 0 struct std::_Tree_node<std::pair<std::basic_string<char,std::char_traits<char>,std::allocator<char> > const ,crashpad::FileReader *>,void *> * std::_Tree_val<std::_Tree_simple_types<std::pair<std::basic_string<char,std::char_traits<char>,std::allocator<char> > const ,crashpad::FileReader *> > >::_Insert_node(const struct std::_Tree_id<std::_Tree_node<std::pair<std::basic_string<char,std::char_traits<char>,std::allocator<char> > const ,crashpad::FileReader *>,void *> *>, struct std::_Tree_node<std::pair<std::basic_string<char,std::char_traits<char>,std::allocator<char> > const ,crashpad::FileReader *>,void *> *)
FUNC ca70 92 0 std::_Destroy_range<std::allocator<base::ScopedGeneric<base::FilePath,crashpad::ScopedRemoveFileTraits> > >(base::ScopedGeneric<base::FilePath,crashpad::ScopedRemoveFileTraits> *,base::ScopedGeneric<base::FilePath,crashpad::ScopedRemoveFileTraits> * const,std::allocator<base::ScopedGeneric<base::FilePath,crashpad::ScopedRemoveFileTraits> > &)
FUNC cb10 86 0 crashpad::CrashReportDatabase::Report::Report(crashpad::CrashReportDatabase::Report &&)
FUNC cba0 6 0 std::_Load_barrier(std::memory_order)
FUNC cbb0 15f 0 static long crashpad::`anonymous namespace'::UnhandledExceptionHandler(struct _EXCEPTION_POINTERS *)
FUNC cd10 c2 0 static void crashpad::`anonymous namespace'::HandleAbortSignal(int)
FUNC cde0 26d 0 static class std::basic_string<wchar_t,std::char_traits<wchar_t>,std::allocator<wchar_t> > crashpad::`anonymous namespace'::FormatArgumentString(const class std::basic_string<char,std::char_traits<char>,std::allocator<char> > & const, const class std::basic_string<wchar_t,std::char_traits<wchar_t>,std::allocator<wchar_t> > & const)
FUNC d050 66f 0 static void crashpad::`anonymous namespace'::CreatePipe(class std::basic_string<wchar_t,std::char_traits<wchar_t>,std::allocator<wchar_t> > *, class base::ScopedGeneric<void *,crashpad::internal::ScopedFileHANDLECloseTraits> *)
FUNC d6c0 373 0 static void crashpad::`anonymous namespace'::BackgroundHandlerStartThreadData::BackgroundHandlerStartThreadData(const class base::FilePath & const, const class base::FilePath & const, const class base::FilePath & const, const class std::basic_string<char,std::char_traits<char>,std::allocator<char> > & const, const class std::map<std::basic_string<char,std::char_traits<char>,std::allocator<char> >,std::basic_string<char,std::char_traits<char>,std::allocator<char> >,std::less<std::basic_string<char,std::char_traits<char>,std::allocator<char> > >,std::allocator<std::pair<std::basic_string<char,std::char_traits<char>,std::allocator<char> > const ,std::basic_string<char,std::char_traits<char>,std::allocator<char> > > > > & const, const class std::vector<std::basic_string<char,std::char_traits<char>,std::allocator<char> >,std::allocator<std::basic_string<char,std::char_traits<char>,std::allocator<char> > > > & const, const class std::vector<base::FilePath,std::allocator<base::FilePath> > & const, const class std::basic_string<wchar_t,std::char_traits<wchar_t>,std::allocator<wchar_t> > & const, class base::ScopedGeneric<void *,crashpad::internal::ScopedFileHANDLECloseTraits>)
FUNC da40 2a 0 std::map<std::basic_string<char,std::char_traits<char>,std::allocator<char> >,std::basic_string<char,std::char_traits<char>,std::allocator<char> >,std::less<std::basic_string<char,std::char_traits<char>,std::allocator<char> > >,std::allocator<std::pair<std::basic_string<char,std::char_traits<char>,std::allocator<char> > const ,std::basic_string<char,std::char_traits<char>,std::allocator<char> > > > >::~map<std::basic_string<char,std::char_traits<char>,std::allocator<char> >,std::basic_string<char,std::char_traits<char>,std::allocator<char> >,std::less<std::basic_string<char,std::char_traits<char>,std::allocator<char> > >,std::allocator<std::pair<std::basic_string<char,std::char_traits<char>,std::allocator<char> > const ,std::basic_string<char,std::char_traits<char>,std::allocator<char> > > > >()
FUNC da70 1f46 0 static bool crashpad::`anonymous namespace'::StartHandlerProcess(class std::unique_ptr<crashpad::`anonymous namespace'::BackgroundHandlerStartThreadData,std::default_delete<crashpad::`anonymous namespace'::BackgroundHandlerStartThreadData> >)
FUNC f9c0 21 0 static unsigned long crashpad::`anonymous namespace'::BackgroundHandlerStartThreadProc(void *)
FUNC f9f0 168 0 static void crashpad::`anonymous namespace'::CommonInProcessInitialization()
FUNC fb60 19 0 crashpad::CrashpadClient::CrashpadClient()
FUNC fb80 6b 0 crashpad::CrashpadClient::~CrashpadClient()
FUNC fbf0 228 0 crashpad::CrashpadClient::StartHandler(base::FilePath const &,base::FilePath const &,base::FilePath const &,std::basic_string<char,std::char_traits<char>,std::allocator<char> > const &,std::map<std::basic_string<char,std::char_traits<char>,std::allocator<char> >,std::basic_string<char,std::char_traits<char>,std::allocator<char> >,std::less<std::basic_string<char,std::char_traits<char>,std::allocator<char> > >,std::allocator<std::pair<std::basic_string<char,std::char_traits<char>,std::allocator<char> > const ,std::basic_string<char,std::char_traits<char>,std::allocator<char> > > > > const &,std::vector<std::basic_string<char,std::char_traits<char>,std::allocator<char> >,std::allocator<std::basic_string<char,std::char_traits<char>,std::allocator<char> > > > const &,bool,bool,std::vector<base::FilePath,std::allocator<base::FilePath> > const &)
FUNC fe20 20c 0 crashpad::CrashpadClient::WaitForHandlerStart(unsigned int)
FUNC 10030 5 0 std::vector<std::basic_string<char,std::char_traits<char>,std::allocator<char> >,std::allocator<std::basic_string<char,std::char_traits<char>,std::allocator<char> > > >::~vector<std::basic_string<char,std::char_traits<char>,std::allocator<char> >,std::allocator<std::basic_string<char,std::char_traits<char>,std::allocator<char> > > >()
FUNC 10040 109 0 void std::vector<void *,std::allocator<void *> >::push_back(void * & const)
FUNC 10150 5 0 std::vector<base::FilePath,std::allocator<base::FilePath> >::~vector<base::FilePath,std::allocator<base::FilePath> >()
FUNC 10160 9a 0 static void base::ScopedGeneric<_PROC_THREAD_ATTRIBUTE_LIST *,crashpad::`anonymous namespace'::ScopedProcThreadAttributeListTraits>::FreeIfNecessary()
FUNC 10200 6b 0 std::vector<std::basic_string<char,std::char_traits<char>,std::allocator<char> >,std::allocator<std::basic_string<char,std::char_traits<char>,std::allocator<char> > > >::_Tidy()
FUNC 10270 6b 0 std::vector<base::FilePath,std::allocator<base::FilePath> >::_Tidy()
FUNC 102e0 e2 0 void base::ScopedGeneric<void *,crashpad::internal::ScopedKernelHANDLECloseTraits>::FreeIfNecessary()
FUNC 103d0 21e 0 static void crashpad::`anonymous namespace'::BackgroundHandlerStartThreadData::~BackgroundHandlerStartThreadData()
FUNC 105f0 14 0 std::vector<std::basic_string<char,std::char_traits<char>,std::allocator<char> >,std::allocator<std::basic_string<char,std::char_traits<char>,std::allocator<char> > > >::_Destroy(std::basic_string<char,std::char_traits<char>,std::allocator<char> > *,std::basic_string<char,std::char_traits<char>,std::allocator<char> > *)
FUNC 10610 6c 0 std::allocator<std::basic_string<char,std::char_traits<char>,std::allocator<char> > >::allocate(unsigned __int64)
FUNC 10680 42 0 std::allocator<std::basic_string<char,std::char_traits<char>,std::allocator<char> > >::deallocate(std::basic_string<char,std::char_traits<char>,std::allocator<char> > * const,unsigned __int64)
FUNC 106d0 88 0 void std::vector<void *,std::allocator<void *> >::_Change_array(void * *, const unsigned __int64, const unsigned __int64)
FUNC 10760 70 0 void * * std::allocator<void *>::allocate(const unsigned __int64)
FUNC 107d0 85 0 std::_Destroy_range<std::allocator<std::basic_string<char,std::char_traits<char>,std::allocator<char> > > >(std::basic_string<char,std::char_traits<char>,std::allocator<char> > *,std::basic_string<char,std::char_traits<char>,std::allocator<char> > * const,std::allocator<std::basic_string<char,std::char_traits<char>,std::allocator<char> > > &)
FUNC 10860 8a 0 std::_Destroy_range<std::allocator<base::FilePath> >(base::FilePath *,base::FilePath * const,std::allocator<base::FilePath> &)
FUNC m 108f0 11 0 std::_Vector_val<std::_Simple_types<base::FilePath> >::_Vector_val<std::_Simple_types<base::FilePath> >()
FUNC 10910 1b1 0 std::basic_string<wchar_t,std::char_traits<wchar_t>,std::allocator<wchar_t> >::basic_string<wchar_t,std::char_traits<wchar_t>,std::allocator<wchar_t> >(std::_String_constructor_concat_tag,std::basic_string<wchar_t,std::char_traits<wchar_t>,std::allocator<wchar_t> > &,std::basic_string<wchar_t,std::char_traits<wchar_t>,std::allocator<wchar_t> > &)
FUNC 10ad0 1ef 0 std::basic_string<char,std::char_traits<char>,std::allocator<char> >::basic_string<char,std::char_traits<char>,std::allocator<char> >(std::_String_constructor_concat_tag,std::basic_string<char,std::char_traits<char>,std::allocator<char> > &,std::basic_string<char,std::char_traits<char>,std::allocator<char> > &)
FUNC 10cc0 10f 0 void std::_Tree_val<std::_Tree_simple_types<std::pair<std::basic_string<char,std::char_traits<char>,std::allocator<char> > const ,std::basic_string<char,std::char_traits<char>,std::allocator<char> > > > >::_Erase_tree<std::allocator<std::_Tree_node<std::pair<std::basic_string<char,std::char_traits<char>,std::allocator<char> > const ,std::basic_string<char,std::char_traits<char>,std::allocator<char> > >,void *> > >(class std::allocator<std::_Tree_node<std::pair<std::basic_string<char,std::char_traits<char>,std::allocator<char> > const ,std::basic_string<char,std::char_traits<char>,std::allocator<char> > >,void *> > & const, struct std::_Tree_node<std::pair<std::basic_string<char,std::char_traits<char>,std::allocator<char> > const ,std::basic_string<char,std::char_traits<char>,std::allocator<char> > >,void *> *)
FUNC 10dd0 24 0 struct std::_Tree_node<std::pair<std::basic_string<char,std::char_traits<char>,std::allocator<char> > const ,std::basic_string<char,std::char_traits<char>,std::allocator<char> > >,void *> * std::_Tree_node<std::pair<std::basic_string<char,std::char_traits<char>,std::allocator<char> > const ,std::basic_string<char,std::char_traits<char>,std::allocator<char> > >,void *>::_Buyheadnode<std::allocator<std::_Tree_node<std::pair<std::basic_string<char,std::char_traits<char>,std::allocator<char> > const ,std::basic_string<char,std::char_traits<char>,std::allocator<char> > >,void *> > >(class std::allocator<std::_Tree_node<std::pair<std::basic_string<char,std::char_traits<char>,std::allocator<char> > const ,std::basic_string<char,std::char_traits<char>,std::allocator<char> > >,void *> > & const)
FUNC 10e00 16a 0 class std::basic_string<char,std::char_traits<char>,std::allocator<char> > & const std::basic_string<char,std::char_traits<char>,std::allocator<char> >::_Reallocate_grow_by<<lambda_f3a66ab6a0570788f31503db83886f49>,unsigned __int64,char const *,unsigned __int64>(const unsigned __int64, class std::basic_string<char,std::char_traits<char>,std::allocator<char> >::insert::__l2::<lambda_f3a66ab6a0570788f31503db83886f49>, unsigned __int64, const char *, unsigned __int64)
FUNC 10f70 de 0 std::_Tree<std::_Tmap_traits<std::basic_string<char,std::char_traits<char>,std::allocator<char> >,std::basic_string<char,std::char_traits<char>,std::allocator<char> >,std::less<std::basic_string<char,std::char_traits<char>,std::allocator<char> > >,std::allocator<std::pair<std::basic_string<char,std::char_traits<char>,std::allocator<char> > const ,std::basic_string<char,std::char_traits<char>,std::allocator<char> > > >,0> >::_Copy_nodes<std::_Tree<std::_Tmap_traits<std::basic_string<char,std::char_traits<char>,std::allocator<char> >,std::basic_string<char,std::char_traits<char>,std::allocator<char> >,std::less<std::basic_string<char,std::char_traits<char>,std::allocator<char> > >,std::allocator<std::pair<std::basic_string<char,std::char_traits<char>,std::allocator<char> > const ,std::basic_string<char,std::char_traits<char>,std::allocator<char> > > >,0> >::_Copy_tag>(std::_Tree_node<std::pair<std::basic_string<char,std::char_traits<char>,std::allocator<char> > const ,std::basic_string<char,std::char_traits<char>,std::allocator<char> > >,void *> *,std::_Tree_node<std::pair<std::basic_string<char,std::char_traits<char>,std::allocator<char> > const ,std::basic_string<char,std::char_traits<char>,std::allocator<char> > >,void *> *,std::_Tree<std::_Tmap_traits<std::basic_string<char,std::char_traits<char>,std::allocator<char> >,std::basic_string<char,std::char_traits<char>,std::allocator<char> >,std::less<std::basic_string<char,std::char_traits<char>,std::allocator<char> > >,std::allocator<std::pair<std::basic_string<char,std::char_traits<char>,std::allocator<char> > const ,std::basic_string<char,std::char_traits<char>,std::allocator<char> > > >,0> >::_Copy_tag)
FUNC 11050 d 0 std::_Tree_val<std::_Tree_simple_types<std::pair<std::basic_string<char,std::char_traits<char>,std::allocator<char> > const ,std::basic_string<char,std::char_traits<char>,std::allocator<char> > > > >::_Tree_val<std::_Tree_simple_types<std::pair<std::basic_string<char,std::char_traits<char>,std::allocator<char> > const ,std::basic_string<char,std::char_traits<char>,std::allocator<char> > > > >()
FUNC 11060 97 0 crashpad::Settings::SetUploadsEnabled(bool)
FUNC 11100 106 0 crashpad::Settings::MakeScopedLockedFileHandle(void *,crashpad::FileLocking,base::FilePath const &)
FUNC 11210 216 0 crashpad::Settings::OpenForReadingAndWriting(crashpad::FileWriteMode,bool)
FUNC 11430 202 0 crashpad::Settings::OpenForWritingAndReadSettings(crashpad::Settings::Data *)
FUNC 11640 2d8 0 crashpad::Settings::ReadSettings(void *,crashpad::Settings::Data *,bool)
FUNC 11920 16a 0 crashpad::Settings::WriteSettings(void *,crashpad::Settings::Data const &)
FUNC 11a90 2dd 0 crashpad::Settings::RecoverSettings(void *,crashpad::Settings::Data *)
FUNC 11d70 eb 0 void base::ScopedGeneric<void *,crashpad::internal::ScopedLockedFileHandleTraits>::FreeIfNecessary()
FUNC 11e60 3b5 0 crashpad::CrashReportDatabase::NewReport::Initialize(crashpad::CrashReportDatabase *,base::FilePath const &,std::basic_string<wchar_t,std::char_traits<wchar_t>,std::allocator<wchar_t> > const &)
FUNC 12220 12f 0 crashpad::CrashReportDatabase::UploadReport::`scalar deleting destructor'(unsigned int)
FUNC m 12350 99 0 std::vector<std::unique_ptr<crashpad::FileReader,std::default_delete<crashpad::FileReader> >,std::allocator<std::unique_ptr<crashpad::FileReader,std::default_delete<crashpad::FileReader> > > >::~vector<std::unique_ptr<crashpad::FileReader,std::default_delete<crashpad::FileReader> >,std::allocator<std::unique_ptr<crashpad::FileReader,std::default_delete<crashpad::FileReader> > > >()
FUNC 123f0 c0 0 void std::_Tree_val<std::_Tree_simple_types<std::pair<std::basic_string<char,std::char_traits<char>,std::allocator<char> > const ,crashpad::FileReader *> > >::_Erase_tree<std::allocator<std::_Tree_node<std::pair<std::basic_string<char,std::char_traits<char>,std::allocator<char> > const ,crashpad::FileReader *>,void *> > >(class std::allocator<std::_Tree_node<std::pair<std::basic_string<char,std::char_traits<char>,std::allocator<char> > const ,crashpad::FileReader *>,void *> > & const, struct std::_Tree_node<std::pair<std::basic_string<char,std::char_traits<char>,std::allocator<char> > const ,crashpad::FileReader *>,void *> *)
FUNC 124b0 1e8 0 crashpad::ReadFile(void *,void *,unsigned __int64)
FUNC 126a0 6c 0 crashpad::OpenFileForReadAndWrite(base::FilePath const &,crashpad::FileWriteMode,crashpad::FilePermissions)
FUNC 12710 1b8 0 crashpad::LoggingOpenFileForRead(base::FilePath const &)
FUNC 128d0 db 0 crashpad::LoggingSeekFile(void *,__int64,int)
FUNC 129b0 1b0 0 logging::MakeCheckOpString<unsigned long,unsigned long>(unsigned long const &,unsigned long const &,char const *)
FUNC 12b60 172 0 static bool crashpad::`anonymous namespace'::LoggingRemoveDirectoryImpl(const class base::FilePath & const)
FUNC 12ce0 2e1 0 crashpad::FileModificationTime(base::FilePath const &,timespec *)
FUNC 12fd0 17a 0 crashpad::IsRegularFile(base::FilePath const &)
FUNC 13150 18e 0 crashpad::IsDirectory(base::FilePath const &,bool)
FUNC 132e0 1a3 0 crashpad::LoggingRemoveFile(base::FilePath const &)
FUNC 13490 28f 0 crashpad::LoggingRemoveDirectory(base::FilePath const &)
FUNC 13720 f0 0 void base::ScopedGeneric<void *,crashpad::internal::ScopedSearchHANDLECloseTraits>::FreeIfNecessary()
FUNC 13810 be 0 static __int64 crashpad::`anonymous namespace'::FileIOReadExactly::Read(void *, unsigned __int64, bool)
FUNC 138d0 a4 0 static __int64 crashpad::`anonymous namespace'::FileIOWriteAll::Write(const void *, unsigned __int64)
FUNC 13980 127 0 crashpad::internal::ReadExactlyInternal::ReadExactly(void *,unsigned __int64,bool)
FUNC 13ab0 ea 0 crashpad::LoggingWriteFile(void *,void const *,unsigned __int64)
FUNC 13ba0 14c 0 crashpad::CheckedCloseFile(void *)
FUNC 13cf0 3f 0 crashpad::FileWriterInterface::`scalar deleting destructor'(unsigned int)
FUNC 13d30 7c 0 crashpad::WeakFileHandleFileWriter::`scalar deleting destructor'(unsigned int)
FUNC 13db0 9 0 crashpad::WeakFileHandleFileWriter::Write(void const *,unsigned __int64)
FUNC 13dc0 c1 0 crashpad::WeakFileHandleFileWriter::WriteIoVec(std::vector<crashpad::WritableIoVec,std::allocator<crashpad::WritableIoVec> > *)
FUNC m 13e90 9 0 crashpad::WeakFileHandleFileReader::Seek(__int64,int)
FUNC 13ea0 102 0 crashpad::FileWriter::`scalar deleting destructor'(unsigned int)
FUNC 13fb0 26a 0 crashpad::FileWriter::Open(base::FilePath const &,crashpad::FileWriteMode,crashpad::FilePermissions)
FUNC m 14220 c 0 crashpad::FileReader::Read(void *,unsigned __int64)
FUNC 14230 c 0 crashpad::FileWriter::WriteIoVec(std::vector<crashpad::WritableIoVec,std::allocator<crashpad::WritableIoVec> > *)
FUNC m 14240 15 0 crashpad::FileReader::Seek(__int64,int)
PUBLIC m 14258 0 [thunk]:crashpad::FileReader::Seek`vtordisp{4294967292,0}' (__int64,int)
PUBLIC m 14264 0 [thunk]:crashpad::WeakFileHandleFileReader::Seek`vtordisp{4294967292,0}' (__int64,int)
FUNC 14270 3f 0 crashpad::FileReaderInterface::`scalar deleting destructor'(unsigned int)
FUNC 142b0 7c 0 crashpad::WeakFileHandleFileReader::`scalar deleting destructor'(unsigned int)
FUNC 14330 b7 0 crashpad::WeakFileHandleFileReader::Read(void *,unsigned __int64)
FUNC 143f0 102 0 crashpad::FileReader::`scalar deleting destructor'(unsigned int)
FUNC 14500 ec 0 crashpad::FileReader::Open(base::FilePath const &)
FUNC 145f0 8 0 _local_stdio_scanf_options
FUNC 14600 52 0 sscanf
FUNC 14660 150 0 crashpad::UUID::InitializeFromString(base::BasicStringPiece<std::basic_string<wchar_t,std::char_traits<wchar_t>,std::allocator<wchar_t> > > const &)
FUNC 147b0 159 0 crashpad::UUID::ToWString()
FUNC 14910 243 0 crashpad::DirectoryReader::Open(base::FilePath const &)
FUNC 14b60 36e 0 crashpad::DirectoryReader::NextFile(base::FilePath *)
FUNC 14ed0 275 0 static void * crashpad::`anonymous namespace'::GetSecurityDescriptorWithUser(const wchar_t *, unsigned __int64 *)
FUNC 15150 2fd 0 crashpad::SendToCrashHandlerServer(std::basic_string<wchar_t,std::char_traits<wchar_t>,std::allocator<wchar_t> > const &,crashpad::ClientToServerMessage const &,crashpad::ServerToClientMessage *)
FUNC 15450 61b 0 crashpad::AppendCommandLineArgument(std::basic_string<wchar_t,std::char_traits<wchar_t>,std::allocator<wchar_t> > const &,std::basic_string<wchar_t,std::char_traits<wchar_t>,std::allocator<wchar_t> > *)
FUNC 15a70 9d 0 std::vector<std::basic_string<char,std::char_traits<char>,std::allocator<char> >,std::allocator<std::basic_string<char,std::char_traits<char>,std::allocator<char> > > >::_Change_array(std::basic_string<char,std::char_traits<char>,std::allocator<char> > * const,unsigned __int64,unsigned __int64)
FUNC 15b10 30 0 std::vector<std::basic_string<char,std::char_traits<char>,std::allocator<char> >,std::allocator<std::basic_string<char,std::char_traits<char>,std::allocator<char> > > >::_Calculate_growth(unsigned __int64)
FUNC 15b40 4c 0 std::vector<std::basic_string<char,std::char_traits<char>,std::allocator<char> >,std::allocator<std::basic_string<char,std::char_traits<char>,std::allocator<char> > > >::_Umove_if_noexcept(std::basic_string<char,std::char_traits<char>,std::allocator<char> > *,std::basic_string<char,std::char_traits<char>,std::allocator<char> > *,std::basic_string<char,std::char_traits<char>,std::allocator<char> > *)
FUNC 15b90 51 0 std::vector<std::basic_string<char,std::char_traits<char>,std::allocator<char> >,std::allocator<std::basic_string<char,std::char_traits<char>,std::allocator<char> > > >::_Umove(std::basic_string<char,std::char_traits<char>,std::allocator<char> > *,std::basic_string<char,std::char_traits<char>,std::allocator<char> > *,std::basic_string<char,std::char_traits<char>,std::allocator<char> > *)
FUNC 15bf0 b 0 std::vector<std::basic_string<char,std::char_traits<char>,std::allocator<char> >,std::allocator<std::basic_string<char,std::char_traits<char>,std::allocator<char> > > >::max_size()
FUNC 15c00 2a 0 std::_Default_allocator_traits<std::allocator<std::basic_string<char,std::char_traits<char>,std::allocator<char> > > >::construct<std::basic_string<char,std::char_traits<char>,std::allocator<char> >,std::basic_string<char,std::char_traits<char>,std::allocator<char> > >(std::allocator<std::basic_string<char,std::char_traits<char>,std::allocator<char> > > &,std::basic_string<char,std::char_traits<char>,std::allocator<char> > * const,std::basic_string<char,std::char_traits<char>,std::allocator<char> > &&)
FUNC 15c30 f9 0 base::RandUint64()
FUNC 15d30 10a 0 base::RandBytes(void *,unsigned __int64)
FUNC 15e40 51 0 TestThread::TestThread(bool,unsigned int)
FUNC 15ea0 28 0 TestThread::~TestThread()
FUNC 15ed0 76 0 TestThread::run()
FUNC 15f50 3a 0 TestThread::crash()
FUNC 15f90 3b 0 TestThread::`scalar deleting destructor'(unsigned int)
FUNC 15fd0 120 0 crashpadHandler::version()
FUNC 16100 6b 0 crashpadHandler::crashpadHandler()
FUNC 16180 42 0 crashpadHandler::~crashpadHandler()
FUNC 161d0 510 0 crashpadHandler::initCrashpad()
FUNC 166f0 51 0 crashpadHandler::uploadUrl()
FUNC 16750 174 0 crashpadHandler::dumpFileList()
FUNC 168d0 5a 0 crashpadHandler::setDBPath(QString const &)
FUNC 16930 2d 0 crashpadHandler::setHandlerPath(QString const &)
FUNC 16970 6d 0 crashpadHandler::setDumpPath(QString const &)
FUNC 169f0 53 0 crashpadHandler::setUploadUrl(QUrl const &)
FUNC 16a50 2df 0 crashpadHandler::checkPath(QString const &,QString &)
FUNC 16d40 42 0 crashpadHandler::sendDumps()
FUNC 16d90 30 0 crashpadHandlerBuilder::crashpadHandlerBuilder()
FUNC 16dd0 15 0 crashpadHandlerBuilder::~crashpadHandlerBuilder()
FUNC 16df0 36 0 crashpadHandlerBuilder::setDBPath(QString const &)
FUNC 16e30 36 0 crashpadHandlerBuilder::setHandlerPath(QString const &)
FUNC 16e70 36 0 crashpadHandlerBuilder::setDumpPath(QString const &)
FUNC 16eb0 36 0 crashpadHandlerBuilder::setUploadUrl(QUrl const &)
FUNC 16ef0 2df 0 crashpadHandlerBuilder::checkPath(QString const &,QString &)
FUNC 171e0 b2 0 urlToStdString(QUrl const &)
FUNC 172a0 8f 0 static void qCallOnce<void (__cdecl*)(void)>( *, class QBasicAtomicInteger<int> & const)
FUNC 17330 2e 0 void std::_Compressed_pair<std::allocator<std::_Tree_node<std::pair<std::basic_string<char,std::char_traits<char>,std::allocator<char> > const ,std::basic_string<char,std::char_traits<char>,std::allocator<char> > >,void *> >,std::_Tree_val<std::_Tree_simple_types<std::pair<std::basic_string<char,std::char_traits<char>,std::allocator<char> > const ,std::basic_string<char,std::char_traits<char>,std::allocator<char> > > > >,1>::_Compressed_pair<std::allocator<std::_Tree_node<std::pair<std::basic_string<char,std::char_traits<char>,std::allocator<char> > const ,std::basic_string<char,std::char_traits<char>,std::allocator<char> > >,void *> >,std::_Tree_val<std::_Tree_simple_types<std::pair<std::basic_string<char,std::char_traits<char>,std::allocator<char> > const ,std::basic_string<char,std::char_traits<char>,std::allocator<char> > > > >,1><>(struct std::_Zero_then_variadic_args_t)
FUNC 17360 2e 0 std::_Compressed_pair<std::allocator<base::FilePath>,std::_Vector_val<std::_Simple_types<base::FilePath> >,1>::_Compressed_pair<std::allocator<base::FilePath>,std::_Vector_val<std::_Simple_types<base::FilePath> >,1><>(std::_Zero_then_variadic_args_t)
FUNC 17390 42 0 void std::_Compressed_pair<std::less<std::basic_string<char,std::char_traits<char>,std::allocator<char> > >,std::_Compressed_pair<std::allocator<std::_Tree_node<std::pair<std::basic_string<char,std::char_traits<char>,std::allocator<char> > const ,std::basic_string<char,std::char_traits<char>,std::allocator<char> > >,void *> >,std::_Tree_val<std::_Tree_simple_types<std::pair<std::basic_string<char,std::char_traits<char>,std::allocator<char> > const ,std::basic_string<char,std::char_traits<char>,std::allocator<char> > > > >,1>,1>::_Compressed_pair<std::less<std::basic_string<char,std::char_traits<char>,std::allocator<char> > >,std::_Compressed_pair<std::allocator<std::_Tree_node<std::pair<std::basic_string<char,std::char_traits<char>,std::allocator<char> > const ,std::basic_string<char,std::char_traits<char>,std::allocator<char> > >,void *> >,std::_Tree_val<std::_Tree_simple_types<std::pair<std::basic_string<char,std::char_traits<char>,std::allocator<char> > const ,std::basic_string<char,std::char_traits<char>,std::allocator<char> > > > >,1>,1><std::less<std::basic_string<char,std::char_traits<char>,std::allocator<char> > > const &,std::_Zero_then_variadic_args_t>(struct std::_One_then_variadic_args_t, const struct std::less<std::basic_string<char,std::char_traits<char>,std::allocator<char> > > & const, struct std::_Zero_then_variadic_args_t *)
FUNC 173e0 3d 0 QStringView::QStringView<QChar,1>(QChar const *,__int64)
FUNC 17420 3b 0 std::operator==<crashpad::CrashReportDatabase,std::default_delete<crashpad::CrashReportDatabase> >(std::unique_ptr<crashpad::CrashReportDatabase,std::default_delete<crashpad::CrashReportDatabase> > const &,std::nullptr_t)
FUNC m 17460 b 0 QListSpecialMethods<QString>::self()
FUNC 17470 d 0 std::_Atomic_reinterpret_as<long,int>(int const &)
FUNC 17480 a9 0 std::vector<std::basic_string<char,std::char_traits<char>,std::allocator<char> >,std::allocator<std::basic_string<char,std::char_traits<char>,std::allocator<char> > > >::_Emplace_back_with_unused_capacity<std::basic_string<char,std::char_traits<char>,std::allocator<char> > >(std::basic_string<char,std::char_traits<char>,std::allocator<char> > &&)
FUNC 17530 215 0 std::vector<std::basic_string<char,std::char_traits<char>,std::allocator<char> >,std::allocator<std::basic_string<char,std::char_traits<char>,std::allocator<char> > > >::_Emplace_reallocate<std::basic_string<char,std::char_traits<char>,std::allocator<char> > >(std::basic_string<char,std::char_traits<char>,std::allocator<char> > * const,std::basic_string<char,std::char_traits<char>,std::allocator<char> > &&)
FUNC 17750 a1 0 QString::arg<QString,QString,QString>(QString &&,QString &&,QString &&)
FUNC 17800 c3 0 QStringView::arg<QString,QString,QString>(QString &&,QString &&,QString &&)
FUNC 178d0 bd 0 QtPrivate::argToQStringDispatch<QStringView,QtPrivate::QStringViewArg,QtPrivate::QStringViewArg,QtPrivate::QStringViewArg>(QStringView,QtPrivate::QStringViewArg const &,QtPrivate::QStringViewArg const &,QtPrivate::QStringViewArg const &)
FUNC 17990 33 0 QAtomicOps<int>::deref<int>(std::atomic<int> &)
FUNC 179d0 7b 0 std::vector<std::basic_string<char,std::char_traits<char>,std::allocator<char> >,std::allocator<std::basic_string<char,std::char_traits<char>,std::allocator<char> > > >::emplace_back<std::basic_string<char,std::char_traits<char>,std::allocator<char> > >(std::basic_string<char,std::char_traits<char>,std::allocator<char> > &&)
FUNC 17a50 26 0 QAtomicOps<int>::fetchAndStoreAcquire<int>(std::atomic<int> &,int)
FUNC 17a80 26 0 QAtomicOps<int>::fetchAndStoreRelease<int>(std::atomic<int> &,int)
FUNC 17ab0 1a 0 QAtomicOps<int>::loadRelaxed<int>(std::atomic<int> const &)
FUNC 17ad0 4a 0 qToStringViewIgnoringNull<QString,1>(QString const &)
FUNC 17b20 5a 0 QAtomicOps<int>::testAndSetAcquire<int>(std::atomic<int> &,int,int,int *)
FUNC 17b80 57 0 QAtomicOps<int>::testAndSetRelaxed<int>(std::atomic<int> &,int,int,int *)
FUNC m 17be0 1a 0 QFlags<QDir::Filter>::QFlags<QDir::Filter>(QDir::Filter)
FUNC 17c00 1a 0 QList<QString>::QList<QString>()
FUNC m 17c20 1d 0 QMetaObject::SuperData::SuperData(QMetaObject const *)
FUNC 17c40 3e 0 std::_Tree<std::_Tmap_traits<std::basic_string<char,std::char_traits<char>,std::allocator<char> >,std::basic_string<char,std::char_traits<char>,std::allocator<char> >,std::less<std::basic_string<char,std::char_traits<char>,std::allocator<char> > >,std::allocator<std::pair<std::basic_string<char,std::char_traits<char>,std::allocator<char> > const ,std::basic_string<char,std::char_traits<char>,std::allocator<char> > > >,0> >::_Tree<std::_Tmap_traits<std::basic_string<char,std::char_traits<char>,std::allocator<char> >,std::basic_string<char,std::char_traits<char>,std::allocator<char> >,std::less<std::basic_string<char,std::char_traits<char>,std::allocator<char> > >,std::allocator<std::pair<std::basic_string<char,std::char_traits<char>,std::allocator<char> > const ,std::basic_string<char,std::char_traits<char>,std::allocator<char> > > >,0> >(std::less<std::basic_string<char,std::char_traits<char>,std::allocator<char> > > const &)
FUNC 17c80 22 0 std::map<std::basic_string<char,std::char_traits<char>,std::allocator<char> >,std::basic_string<char,std::char_traits<char>,std::allocator<char> >,std::less<std::basic_string<char,std::char_traits<char>,std::allocator<char> > >,std::allocator<std::pair<std::basic_string<char,std::char_traits<char>,std::allocator<char> > const ,std::basic_string<char,std::char_traits<char>,std::allocator<char> > > > >::map<std::basic_string<char,std::char_traits<char>,std::allocator<char> >,std::basic_string<char,std::char_traits<char>,std::allocator<char> >,std::less<std::basic_string<char,std::char_traits<char>,std::allocator<char> > >,std::allocator<std::pair<std::basic_string<char,std::char_traits<char>,std::allocator<char> > const ,std::basic_string<char,std::char_traits<char>,std::allocator<char> > > > >()
FUNC 17cb0 39 0 std::vector<base::FilePath,std::allocator<base::FilePath> >::vector<base::FilePath,std::allocator<base::FilePath> >()
FUNC 17cf0 1d 0 QStringList::QStringList()
FUNC 17d10 31 0 QtPrivate::QStringViewArg::QStringViewArg(QStringView)
FUNC 17d50 3c 0 std::bad_alloc::bad_alloc(char const * const)
FUNC 17d90 36 0 std::bad_alloc::bad_alloc(std::bad_alloc const &)
FUNC 17dd0 36 0 std::bad_array_new_length::bad_array_new_length(std::bad_array_new_length const &)
FUNC 17e10 33 0 std::bad_array_new_length::bad_array_new_length()
FUNC 17e50 5f 0 crashpadHandlerPrivate::crashpadHandlerPrivate()
FUNC 17eb0 58 0 std::exception::exception(std::exception const &)
FUNC 17f10 49 0 std::exception::exception(char const * const,int)
FUNC 17f60 38 0 QList<QString>::~QList<QString>()
FUNC 17fa0 26 0 QScopedPointer<crashpadHandler,QScopedPointerDeleter<crashpadHandler> >::~QScopedPointer<crashpadHandler,QScopedPointerDeleter<crashpadHandler> >()
FUNC 17fd0 18 0 QStringList::~QStringList()
FUNC 17ff0 18 0 std::bad_alloc::~bad_alloc()
FUNC 18010 18 0 std::bad_array_new_length::~bad_array_new_length()
FUNC 18030 56 0 crashpadHandlerPrivate::~crashpadHandlerPrivate()
FUNC 18090 2e 0 std::exception::~exception()
FUNC 180c0 27 0 QStringList::operator<<(QString const &)
FUNC 180f0 27 0 std::unique_ptr<crashpad::CrashReportDatabase,std::default_delete<crashpad::CrashReportDatabase> >::operator bool()
FUNC m 18120 e 0 QScopedPointer<QObjectData,QScopedPointerDeleter<QObjectData> >::operator->()
FUNC 18130 25 0 std::_Atomic_integral<int,4>::operator--()
FUNC 18160 6c 0 operator+(QString const &,QString const &)
FUNC 181d0 9d 0 operator+(QString const &,char const *)
FUNC 18270 3c 0 QString::`scalar deleting destructor'(unsigned int)
FUNC 182b0 3b 0 std::bad_alloc::`scalar deleting destructor'(unsigned int)
FUNC 182f0 3b 0 std::bad_array_new_length::`scalar deleting destructor'(unsigned int)
FUNC 18330 3b 0 crashpadHandler::`scalar deleting destructor'(unsigned int)
FUNC 18370 3b 0 crashpadHandlerBuilder::`scalar deleting destructor'(unsigned int)
FUNC 183b0 3b 0 crashpadHandlerPrivate::`scalar deleting destructor'(unsigned int)
FUNC 183f0 3b 0 std::exception::`scalar deleting destructor'(unsigned int)
FUNC 18430 61 0 std::_Tree<std::_Tmap_traits<std::basic_string<char,std::char_traits<char>,std::allocator<char> >,std::basic_string<char,std::char_traits<char>,std::allocator<char> >,std::less<std::basic_string<char,std::char_traits<char>,std::allocator<char> > >,std::allocator<std::pair<std::basic_string<char,std::char_traits<char>,std::allocator<char> > const ,std::basic_string<char,std::char_traits<char>,std::allocator<char> > > >,0> >::_Alloc_sentinel_and_proxy()
FUNC 184a0 14 0 std::_Check_load_memory_order(std::memory_order)
FUNC 184c0 41 0 std::_Combine_cas_memory_orders(std::memory_order,std::memory_order)
FUNC 18510 d0 0 QList<QString>::append(QString const &)
FUNC 185e0 3f 0 QScopedPointerDeleter<crashpadHandler>::cleanup(crashpadHandler *)
FUNC 18620 98 0 std::_Atomic_storage<int,4>::compare_exchange_strong(int &,int,std::memory_order)
FUNC 186c0 41 0 std::atomic<int>::compare_exchange_strong(int &,int,std::memory_order,std::memory_order)
FUNC 18710 54 0 QList<QString>::dealloc(QListData::Data *)
FUNC 18770 1b 0 QBasicAtomicInteger<int>::deref()
FUNC 18790 42 0 QtPrivate::RefCount::deref()
FUNC 187e0 183 0 QList<QString>::detach_helper_grow(int,int)
FUNC 18970 48 0 std::_Atomic_storage<int,4>::exchange(int,std::memory_order)
FUNC 189c0 23 0 QBasicAtomicInteger<int>::fetchAndStoreAcquire(int)
FUNC 189f0 23 0 QBasicAtomicInteger<int>::fetchAndStoreRelease(int)
FUNC 18a20 55 0 Singleton<crashpadHandler>::init()
FUNC 18a80 28 0 Singleton<crashpadHandler>::instance()
FUNC 18ab0 44 0 QtPrivate::RefCount::isShared()
FUNC 18b00 3c 0 std::_Atomic_storage<int,4>::load(std::memory_order)
FUNC 18b40 1b 0 QBasicAtomicInteger<int>::loadRelaxed()
FUNC 18b60 a6 0 QList<QString>::node_construct(QList<QString>::Node *,QString const &)
FUNC 18c10 197 0 QList<QString>::node_copy(QList<QString>::Node *,QList<QString>::Node *,QList<QString>::Node *)
FUNC 18db0 9f 0 QList<QString>::node_destruct(QList<QString>::Node *,QList<QString>::Node *)
FUNC 18e50 62 0 QList<QString>::node_destruct(QList<QString>::Node *)
FUNC 18ec0 2a 0 std::vector<std::basic_string<char,std::char_traits<char>,std::allocator<char> >,std::allocator<std::basic_string<char,std::char_traits<char>,std::allocator<char> > > >::push_back(std::basic_string<char,std::char_traits<char>,std::allocator<char> > &&)
FUNC 18ef0 4c 0 QtPrivate::qStringLikeToArg(QString const &)
FUNC 18f40 48 0 QScopedPointer<crashpadHandler,QScopedPointerDeleter<crashpadHandler> >::reset(crashpadHandler *)
FUNC 18f90 30 0 QBasicAtomicInteger<int>::testAndSetAcquire(int,int)
FUNC 18fc0 30 0 QBasicAtomicInteger<int>::testAndSetRelaxed(int,int)
FUNC 18ff0 38 0 std::exception::what()
FUNC 19030 34a 0 crashPadReporterExample::crashPadReporterExample(QWidget *)
FUNC 19380 55 0 crashPadReporterExample::~crashPadReporterExample()
FUNC 193e0 13 0 crashPadReporterExample::crash()
FUNC 19400 c4 0 crashPadReporterExample::crashInThread()
FUNC 194d0 6 0 crashPadReporterExample::uploadDumps()
FUNC 194e0 263 0 main
FUNC 19750 1b 0 DerefZeroCrash()
FUNC 19780 8f 0 static void qCallOnce<void (__cdecl*)(void)>( *, class QBasicAtomicInteger<int> & const)
FUNC m 19810 16 0 QFlags<Qt::AlignmentFlag>::QFlags<Qt::AlignmentFlag>()
FUNC 19830 72 0 operator+(char const *,QString const &)
PUBLIC 198a4 0 [thunk]:QHBoxLayout::`vector deleting destructor'`adjustor{16}' (unsigned int)
PUBLIC 198b0 0 [thunk]:QLabel::`vector deleting destructor'`adjustor{16}' (unsigned int)
PUBLIC 198bc 0 [thunk]:QLineEdit::`vector deleting destructor'`adjustor{16}' (unsigned int)
PUBLIC 198c8 0 [thunk]:QPlainTextEdit::`vector deleting destructor'`adjustor{16}' (unsigned int)
PUBLIC 198d4 0 [thunk]:QPushButton::`vector deleting destructor'`adjustor{16}' (unsigned int)
PUBLIC 198e0 0 [thunk]:QVBoxLayout::`vector deleting destructor'`adjustor{16}' (unsigned int)
PUBLIC 198ec 0 [thunk]:QWidget::`vector deleting destructor'`adjustor{16}' (unsigned int)
PUBLIC 198f8 0 [thunk]:crashPadReporterExample::`vector deleting destructor'`adjustor{16}' (unsigned int)
FUNC 19910 3c 0 QHBoxLayout::`scalar deleting destructor'(unsigned int)
FUNC 19950 3c 0 QLabel::`scalar deleting destructor'(unsigned int)
FUNC 19990 3c 0 QLineEdit::`scalar deleting destructor'(unsigned int)
FUNC 199d0 3c 0 QPlainTextEdit::`scalar deleting destructor'(unsigned int)
FUNC 19a10 3c 0 QPushButton::`scalar deleting destructor'(unsigned int)
FUNC 19a50 3c 0 QVBoxLayout::`scalar deleting destructor'(unsigned int)
FUNC 19a90 3c 0 QWidget::`scalar deleting destructor'(unsigned int)
FUNC 19ad0 3b 0 crashPadReporterExample::`scalar deleting destructor'(unsigned int)
FUNC 19b10 76 0 QListSpecialMethods<QString>::join(QString const &)
FUNC 19b90 2b1 0 Ui_crashPadReporterExample::retranslateUi(QDialog *)
FUNC 19e50 c97 0 Ui_crashPadReporterExample::setupUi(QDialog *)
FUNC 1aaf0 58 0 TestThread::metaObject()
FUNC 1ab50 4b 0 TestThread::qt_metacast(char const *)
FUNC 1abb0 ac 0 TestThread::qt_metacall(QMetaObject::Call,int,void * *)
FUNC 1ac70 48 0 TestThread::qt_static_metacall(QObject *,QMetaObject::Call,int,void * *)
FUNC 1acc0 25 0 QMetaObject::SuperData::link<&QMetaObject const QThread::staticMetaObject>()
FUNC 1acf0 8 0 QMetaObject::staticMetaObject<&QMetaObject const QThread::staticMetaObject>()
FUNC 1ad00 58 0 crashPadReporterExample::metaObject()
FUNC 1ad60 4b 0 crashPadReporterExample::qt_metacast(char const *)
FUNC 1adc0 ae 0 crashPadReporterExample::qt_metacall(QMetaObject::Call,int,void * *)
FUNC 1ae80 6e 0 crashPadReporterExample::qt_static_metacall(QObject *,QMetaObject::Call,int,void * *)
FUNC 1aef0 25 0 QMetaObject::SuperData::link<&QMetaObject const QDialog::staticMetaObject>()
FUNC 1af20 8 0 QMetaObject::staticMetaObject<&QMetaObject const QDialog::staticMetaObject>()
PUBLIC 1af30 0 crashpad::CaptureContext(_CONTEXT *)
PUBLIC 1b06f 0 QDialog::accept()
PUBLIC 1b075 0 QWidget::actionEvent(QActionEvent *)
PUBLIC 1b07b 0 QBoxLayout::addItem(QLayoutItem *)
PUBLIC 1b081 0 QPlainTextEdit::canInsertFromMimeData(QMimeData const *)
PUBLIC 1b087 0 QAbstractButton::changeEvent(QEvent *)
PUBLIC 1b08d 0 QLabel::changeEvent(QEvent *)
PUBLIC 1b093 0 QLineEdit::changeEvent(QEvent *)
PUBLIC 1b099 0 QPlainTextEdit::changeEvent(QEvent *)
PUBLIC 1b09f 0 QWidget::changeEvent(QEvent *)
PUBLIC 1b0a5 0 QAbstractButton::checkStateSet()
PUBLIC 1b0ab 0 QLayout::childEvent(QChildEvent *)
PUBLIC 1b0b1 0 QDialog::closeEvent(QCloseEvent *)
PUBLIC 1b0b7 0 QWidget::closeEvent(QCloseEvent *)
PUBLIC 1b0bd 0 QDialog::contextMenuEvent(QContextMenuEvent *)
PUBLIC 1b0c3 0 QLabel::contextMenuEvent(QContextMenuEvent *)
PUBLIC 1b0c9 0 QLineEdit::contextMenuEvent(QContextMenuEvent *)
PUBLIC 1b0cf 0 QPlainTextEdit::contextMenuEvent(QContextMenuEvent *)
PUBLIC 1b0d5 0 QWidget::contextMenuEvent(QContextMenuEvent *)
PUBLIC 1b0db 0 QLayout::controlTypes()
PUBLIC 1b0e1 0 QBoxLayout::count()
PUBLIC 1b0e7 0 QPlainTextEdit::createMimeDataFromSelection()
PUBLIC 1b0ed 0 QWidget::devType()
PUBLIC 1b0f3 0 QPlainTextEdit::doSetTextCursor(QTextCursor const &)
PUBLIC 1b0f9 0 QDialog::done(int)
PUBLIC 1b0ff 0 QLineEdit::dragEnterEvent(QDragEnterEvent *)
PUBLIC 1b105 0 QPlainTextEdit::dragEnterEvent(QDragEnterEvent *)
PUBLIC 1b10b 0 QWidget::dragEnterEvent(QDragEnterEvent *)
PUBLIC 1b111 0 QLineEdit::dragLeaveEvent(QDragLeaveEvent *)
PUBLIC 1b117 0 QPlainTextEdit::dragLeaveEvent(QDragLeaveEvent *)
PUBLIC 1b11d 0 QWidget::dragLeaveEvent(QDragLeaveEvent *)
PUBLIC 1b123 0 QLineEdit::dragMoveEvent(QDragMoveEvent *)
PUBLIC 1b129 0 QPlainTextEdit::dragMoveEvent(QDragMoveEvent *)
PUBLIC 1b12f 0 QWidget::dragMoveEvent(QDragMoveEvent *)
PUBLIC 1b135 0 QLineEdit::dropEvent(QDropEvent *)
PUBLIC 1b13b 0 QPlainTextEdit::dropEvent(QDropEvent *)
PUBLIC 1b141 0 QWidget::dropEvent(QDropEvent *)
PUBLIC 1b147 0 QWidget::enterEvent(QEvent *)
PUBLIC 1b14d 0 QLabel::event(QEvent *)
PUBLIC 1b153 0 QLineEdit::event(QEvent *)
PUBLIC 1b159 0 QPlainTextEdit::event(QEvent *)
PUBLIC 1b15f 0 QPushButton::event(QEvent *)
PUBLIC 1b165 0 QWidget::event(QEvent *)
PUBLIC 1b16b 0 QAbstractScrollArea::eventFilter(QObject *,QEvent *)
PUBLIC 1b171 0 QDialog::eventFilter(QObject *,QEvent *)
PUBLIC 1b177 0 QDialog::exec()
PUBLIC 1b17d 0 QBoxLayout::expandingDirections()
PUBLIC 1b183 0 QLabel::focusInEvent(QFocusEvent *)
PUBLIC 1b189 0 QLineEdit::focusInEvent(QFocusEvent *)
PUBLIC 1b18f 0 QPlainTextEdit::focusInEvent(QFocusEvent *)
PUBLIC 1b195 0 QPushButton::focusInEvent(QFocusEvent *)
PUBLIC 1b19b 0 QWidget::focusInEvent(QFocusEvent *)
PUBLIC 1b1a1 0 QLabel::focusNextPrevChild(bool)
PUBLIC 1b1a7 0 QPlainTextEdit::focusNextPrevChild(bool)
PUBLIC 1b1ad 0 QWidget::focusNextPrevChild(bool)
PUBLIC 1b1b3 0 QLabel::focusOutEvent(QFocusEvent *)
PUBLIC 1b1b9 0 QLineEdit::focusOutEvent(QFocusEvent *)
PUBLIC 1b1bf 0 QPlainTextEdit::focusOutEvent(QFocusEvent *)
PUBLIC 1b1c5 0 QPushButton::focusOutEvent(QFocusEvent *)
PUBLIC 1b1cb 0 QWidget::focusOutEvent(QFocusEvent *)
PUBLIC 1b1d1 0 QLayout::geometry()
PUBLIC 1b1d7 0 QBoxLayout::hasHeightForWidth()
PUBLIC 1b1dd 0 QWidget::hasHeightForWidth()
PUBLIC 1b1e3 0 QBoxLayout::heightForWidth(int)
PUBLIC 1b1e9 0 QLabel::heightForWidth(int)
PUBLIC 1b1ef 0 QWidget::heightForWidth(int)
PUBLIC 1b1f5 0 QWidget::hideEvent(QHideEvent *)
PUBLIC 1b1fb 0 QPushButton::hitButton(QPoint const &)
PUBLIC 1b201 0 QLayout::indexOf(QWidget *)
PUBLIC 1b207 0 QWidget::initPainter(QPainter *)
PUBLIC 1b20d 0 QLineEdit::inputMethodEvent(QInputMethodEvent *)
PUBLIC 1b213 0 QPlainTextEdit::inputMethodEvent(QInputMethodEvent *)
PUBLIC 1b219 0 QWidget::inputMethodEvent(QInputMethodEvent *)
PUBLIC 1b21f 0 QLineEdit::inputMethodQuery(Qt::InputMethodQuery)
PUBLIC 1b225 0 QPlainTextEdit::inputMethodQuery(Qt::InputMethodQuery)
PUBLIC 1b22b 0 QWidget::inputMethodQuery(Qt::InputMethodQuery)
PUBLIC 1b231 0 QPlainTextEdit::insertFromMimeData(QMimeData const *)
PUBLIC 1b237 0 QBoxLayout::invalidate()
PUBLIC 1b23d 0 QLayout::isEmpty()
PUBLIC 1b243 0 QBoxLayout::itemAt(int)
PUBLIC 1b249 0 QDialog::keyPressEvent(QKeyEvent *)
PUBLIC 1b24f 0 QLabel::keyPressEvent(QKeyEvent *)
PUBLIC 1b255 0 QLineEdit::keyPressEvent(QKeyEvent *)
PUBLIC 1b25b 0 QPlainTextEdit::keyPressEvent(QKeyEvent *)
PUBLIC 1b261 0 QPushButton::keyPressEvent(QKeyEvent *)
PUBLIC 1b267 0 QWidget::keyPressEvent(QKeyEvent *)
PUBLIC 1b26d 0 QAbstractButton::keyReleaseEvent(QKeyEvent *)
PUBLIC 1b273 0 QPlainTextEdit::keyReleaseEvent(QKeyEvent *)
PUBLIC 1b279 0 QWidget::keyReleaseEvent(QKeyEvent *)
PUBLIC 1b27f 0 QLayout::layout()
PUBLIC 1b285 0 QWidget::leaveEvent(QEvent *)
PUBLIC 1b28b 0 QPlainTextEdit::loadResource(int,QUrl const &)
PUBLIC 1b291 0 QBoxLayout::maximumSize()
PUBLIC 1b297 0 QHBoxLayout::metaObject()
PUBLIC 1b29d 0 QLabel::metaObject()
PUBLIC 1b2a3 0 QLineEdit::metaObject()
PUBLIC 1b2a9 0 QPlainTextEdit::metaObject()
PUBLIC 1b2af 0 QPushButton::metaObject()
PUBLIC 1b2b5 0 QVBoxLayout::metaObject()
PUBLIC 1b2bb 0 QWidget::metaObject()
PUBLIC 1b2c1 0 QWidget::metric(QPaintDevice::PaintDeviceMetric)
PUBLIC 1b2c7 0 QBoxLayout::minimumHeightForWidth(int)
PUBLIC 1b2cd 0 QBoxLayout::minimumSize()
PUBLIC 1b2d3 0 QAbstractScrollArea::minimumSizeHint()
PUBLIC 1b2d9 0 QDialog::minimumSizeHint()
PUBLIC 1b2df 0 QLabel::minimumSizeHint()
PUBLIC 1b2e5 0 QLineEdit::minimumSizeHint()
PUBLIC 1b2eb 0 QPushButton::minimumSizeHint()
PUBLIC 1b2f1 0 QWidget::minimumSizeHint()
PUBLIC 1b2f7 0 QLineEdit::mouseDoubleClickEvent(QMouseEvent *)
PUBLIC 1b2fd 0 QPlainTextEdit::mouseDoubleClickEvent(QMouseEvent *)
PUBLIC 1b303 0 QWidget::mouseDoubleClickEvent(QMouseEvent *)
PUBLIC 1b309 0 QAbstractButton::mouseMoveEvent(QMouseEvent *)
PUBLIC 1b30f 0 QLabel::mouseMoveEvent(QMouseEvent *)
PUBLIC 1b315 0 QLineEdit::mouseMoveEvent(QMouseEvent *)
PUBLIC 1b31b 0 QPlainTextEdit::mouseMoveEvent(QMouseEvent *)
PUBLIC 1b321 0 QWidget::mouseMoveEvent(QMouseEvent *)
PUBLIC 1b327 0 QAbstractButton::mousePressEvent(QMouseEvent *)
PUBLIC 1b32d 0 QLabel::mousePressEvent(QMouseEvent *)
PUBLIC 1b333 0 QLineEdit::mousePressEvent(QMouseEvent *)
PUBLIC 1b339 0 QPlainTextEdit::mousePressEvent(QMouseEvent *)
PUBLIC 1b33f 0 QWidget::mousePressEvent(QMouseEvent *)
PUBLIC 1b345 0 QAbstractButton::mouseReleaseEvent(QMouseEvent *)
PUBLIC 1b34b 0 QLabel::mouseReleaseEvent(QMouseEvent *)
PUBLIC 1b351 0 QLineEdit::mouseReleaseEvent(QMouseEvent *)
PUBLIC 1b357 0 QPlainTextEdit::mouseReleaseEvent(QMouseEvent *)
PUBLIC 1b35d 0 QWidget::mouseReleaseEvent(QMouseEvent *)
PUBLIC 1b363 0 QWidget::moveEvent(QMoveEvent *)
PUBLIC 1b369 0 QWidget::nativeEvent(QByteArray const &,void *,long *)
PUBLIC 1b36f 0 QAbstractButton::nextCheckState()
PUBLIC 1b375 0 QDialog::open()
PUBLIC 1b37b 0 QWidget::paintEngine()
PUBLIC 1b381 0 QLabel::paintEvent(QPaintEvent *)
PUBLIC 1b387 0 QLineEdit::paintEvent(QPaintEvent *)
PUBLIC 1b38d 0 QPlainTextEdit::paintEvent(QPaintEvent *)
PUBLIC 1b393 0 QPushButton::paintEvent(QPaintEvent *)
PUBLIC 1b399 0 QWidget::paintEvent(QPaintEvent *)
PUBLIC 1b39f 0 QHBoxLayout::qt_metacall(QMetaObject::Call,int,void * *)
PUBLIC 1b3a5 0 QLabel::qt_metacall(QMetaObject::Call,int,void * *)
PUBLIC 1b3ab 0 QLineEdit::qt_metacall(QMetaObject::Call,int,void * *)
PUBLIC 1b3b1 0 QPlainTextEdit::qt_metacall(QMetaObject::Call,int,void * *)
PUBLIC 1b3b7 0 QPushButton::qt_metacall(QMetaObject::Call,int,void * *)
PUBLIC 1b3bd 0 QVBoxLayout::qt_metacall(QMetaObject::Call,int,void * *)
PUBLIC 1b3c3 0 QWidget::qt_metacall(QMetaObject::Call,int,void * *)
PUBLIC 1b3c9 0 QHBoxLayout::qt_metacast(char const *)
PUBLIC 1b3cf 0 QLabel::qt_metacast(char const *)
PUBLIC 1b3d5 0 QLineEdit::qt_metacast(char const *)
PUBLIC 1b3db 0 QPlainTextEdit::qt_metacast(char const *)
PUBLIC 1b3e1 0 QPushButton::qt_metacast(char const *)
PUBLIC 1b3e7 0 QVBoxLayout::qt_metacast(char const *)
PUBLIC 1b3ed 0 QWidget::qt_metacast(char const *)
PUBLIC 1b3f3 0 QWidget::redirected(QPoint *)
PUBLIC 1b3f9 0 QDialog::reject()
PUBLIC 1b3ff 0 QDialog::resizeEvent(QResizeEvent *)
PUBLIC 1b405 0 QPlainTextEdit::resizeEvent(QResizeEvent *)
PUBLIC 1b40b 0 QWidget::resizeEvent(QResizeEvent *)
PUBLIC 1b411 0 QPlainTextEdit::scrollContentsBy(int,int)
PUBLIC 1b417 0 QBoxLayout::setGeometry(QRect const &)
PUBLIC 1b41d 0 QDialog::setVisible(bool)
PUBLIC 1b423 0 QWidget::setVisible(bool)
PUBLIC 1b429 0 QAbstractScrollArea::setupViewport(QWidget *)
PUBLIC 1b42f 0 QWidget::sharedPainter()
PUBLIC 1b435 0 QDialog::showEvent(QShowEvent *)
PUBLIC 1b43b 0 QPlainTextEdit::showEvent(QShowEvent *)
PUBLIC 1b441 0 QWidget::showEvent(QShowEvent *)
PUBLIC 1b447 0 QAbstractScrollArea::sizeHint()
PUBLIC 1b44d 0 QBoxLayout::sizeHint()
PUBLIC 1b453 0 QDialog::sizeHint()
PUBLIC 1b459 0 QLabel::sizeHint()
PUBLIC 1b45f 0 QLineEdit::sizeHint()
PUBLIC 1b465 0 QPushButton::sizeHint()
PUBLIC 1b46b 0 QWidget::sizeHint()
PUBLIC 1b471 0 QLayoutItem::spacerItem()
PUBLIC 1b477 0 QWidget::tabletEvent(QTabletEvent *)
PUBLIC 1b47d 0 QBoxLayout::takeAt(int)
PUBLIC 1b483 0 QAbstractButton::timerEvent(QTimerEvent *)
PUBLIC 1b489 0 QPlainTextEdit::timerEvent(QTimerEvent *)
PUBLIC 1b48f 0 QAbstractScrollArea::viewportEvent(QEvent *)
PUBLIC 1b495 0 QAbstractScrollArea::viewportSizeHint()
PUBLIC 1b49b 0 QPlainTextEdit::wheelEvent(QWheelEvent *)
PUBLIC 1b4a1 0 QWidget::wheelEvent(QWheelEvent *)
PUBLIC 1b4a7 0 QLayoutItem::widget()
PUBLIC 1b4ad 0 QObject::childEvent(QChildEvent *)
PUBLIC 1b4b3 0 QObject::connectNotify(QMetaMethod const &)
PUBLIC 1b4b9 0 QObject::customEvent(QEvent *)
PUBLIC 1b4bf 0 QObject::disconnectNotify(QMetaMethod const &)
PUBLIC 1b4c5 0 QThread::event(QEvent *)
PUBLIC 1b4cb 0 QObject::eventFilter(QObject *,QEvent *)
PUBLIC 1b4d1 0 QObject::timerEvent(QTimerEvent *)
PUBLIC 1b4d7 0 QObject::event(QEvent *)
PUBLIC 1b4dd 0 std::basic_streambuf<char,std::char_traits<char> >::_Lock()
PUBLIC 1b4e3 0 std::basic_streambuf<char,std::char_traits<char> >::_Unlock()
PUBLIC 1b4e9 0 std::basic_streambuf<char,std::char_traits<char> >::showmanyc()
PUBLIC 1b4ef 0 std::basic_streambuf<char,std::char_traits<char> >::uflow()
PUBLIC 1b4f5 0 std::basic_streambuf<char,std::char_traits<char> >::xsgetn(char *,__int64)
PUBLIC 1b4fb 0 std::basic_streambuf<char,std::char_traits<char> >::xsputn(char const *,__int64)
PUBLIC 1b501 0 std::basic_streambuf<char,std::char_traits<char> >::setbuf(char *,__int64)
PUBLIC 1b507 0 std::basic_streambuf<char,std::char_traits<char> >::sync()
PUBLIC 1b50d 0 std::basic_streambuf<char,std::char_traits<char> >::imbue(std::locale const &)
FUNC m 1b514 5 0 operator delete(void *,unsigned __int64)
FUNC 1b51c 2b 0 type_info::`scalar deleting destructor'(unsigned int)
FUNC 1b548 3c 0 operator new(unsigned __int64)
FUNC 1b584 39 0 _scrt_acquire_startup_lock
FUNC 1b5c0 49 0 _scrt_initialize_crt
FUNC 1b60c 8b 0 _scrt_initialize_onexit_tables
FUNC 1b698 98 0 _scrt_is_nonwritable_in_current_image
FUNC 1b730 24 0 _scrt_release_startup_lock
FUNC 1b754 29 0 _scrt_uninitialize_crt
FUNC 1b780 3a 0 onexit
FUNC 1b7bc 17 0 atexit
FUNC 1b7d4 1d 0 _GSHandlerCheck
FUNC 1b7f4 5b 0 _GSHandlerCheckCommon
FUNC 1b850 7f 0 _GSHandlerCheck_EH4
FUNC 1b8e0 1e 0 _security_check_cookie
FUNC 1b900 b6 0 static int pre_c_initialization()
FUNC 1b9b8 10 0 static int post_pgo_initialization()
FUNC 1b9c8 19 0 static void pre_cpp_initialization()
FUNC 1b9e4 171 0 static int __scrt_common_main_seh()
FUNC 1bb58 12 0 WinMainCRTStartup
FUNC 1bb6c 34 0 _raise_securityfailure
FUNC 1bba0 d2 0 _report_gsfailure
FUNC 1bc74 13 0 _report_rangecheckfailure
FUNC 1bc88 9c 0 _report_securityfailure
FUNC 1bd24 6d 0 static void capture_current_context(struct _CONTEXT *)
FUNC 1bd94 71 0 static void capture_previous_context(struct _CONTEXT *)
FUNC 1be08 d0 0 static int __scrt_initialize_thread_safe_statics()
FUNC 1bed8 28 0 static void __scrt_uninitialize_thread_safe_statics()
FUNC 1bf00 60 0 Init_thread_footer
FUNC 1bf60 67 0 Init_thread_header
FUNC 1bfc8 41 0 Init_thread_notify
FUNC 1c00c 63 0 Init_thread_wait
FUNC 1c070 5 0 operator new[](unsigned __int64)
FUNC 1c078 5 0 operator delete(void *)
FUNC 1c080 1e 0 std::bad_alloc::bad_alloc()
FUNC 1c0a0 20 0 __scrt_throw_std_bad_alloc()
FUNC 1c0c0 20 0 __scrt_throw_std_bad_array_new_length()
FUNC 1c0e0 1a1 0 _isa_available_init
FUNC 1c284 6 0 get_startup_argv_mode
FUNC 1c28c c 0 _scrt_is_ucrt_dll_in_use
FUNC 1c298 8 0 _crt_debugger_hook
FUNC 1c2a0 14b 0 _scrt_fastfail
FUNC 1c3ec 3a 0 _scrt_get_show_window_mode
FUNC 1c428 5 0 _scrt_initialize_mta
FUNC 1c430 52 0 _scrt_is_managed_app
FUNC 1c484 e 0 _scrt_set_unhandled_exception_filter
FUNC 1c494 5b 0 _scrt_unhandled_exception_filter
FUNC 1c4f0 ac 0 _security_init_cookie
FUNC 1c59c 6 0 get_startup_file_mode
FUNC 1c5a4 e 0 __scrt_initialize_type_info()
FUNC m 1c5b4 3 0 _scrt_stub_for_acrt_initialize
FUNC 1c5b8 1b 0 _scrt_initialize_default_local_stdio_options
FUNC 1c5d4 c 0 _scrt_is_user_matherr_present
FUNC 1c5e0 8 0 _scrt_get_dyn_tls_init_callback
FUNC 1c5e8 8 0 _scrt_get_dyn_tls_dtor_callback
FUNC 1c5f0 3c 0 RTC_Initialize
FUNC 1c62c 3c 0 RTC_Terminate
PUBLIC 1c670 0 CxxThrowException
PUBLIC 1c676 0 _CxxFrameHandler4
PUBLIC 1c67c 0 memcpy
PUBLIC 1c682 0 memmove
PUBLIC 1c688 0 _std_exception_copy
PUBLIC 1c68e 0 _std_exception_destroy
PUBLIC 1c694 0 purecall
PUBLIC 1c69a 0 _C_specific_handler
PUBLIC 1c6a0 0 _current_exception
PUBLIC 1c6a6 0 _current_exception_context
PUBLIC 1c6ac 0 memset
PUBLIC 1c6b2 0 strcmp
PUBLIC 1c6b8 0 free
PUBLIC 1c6be 0 callnewh
PUBLIC 1c6c4 0 malloc
PUBLIC 1c6ca 0 configure_narrow_argv
PUBLIC 1c6d0 0 initialize_narrow_environment
PUBLIC 1c6d6 0 initialize_onexit_table
PUBLIC 1c6dc 0 register_onexit_function
PUBLIC 1c6e2 0 crt_atexit
PUBLIC 1c6e8 0 cexit
PUBLIC 1c6ee 0 seh_filter_exe
PUBLIC 1c6f4 0 set_app_type
PUBLIC 1c6fa 0 _setusermatherr
PUBLIC 1c700 0 get_narrow_winmain_command_line
PUBLIC 1c706 0 initterm
PUBLIC 1c70c 0 initterm_e
PUBLIC 1c712 0 exit
PUBLIC 1c718 0 exit
PUBLIC 1c71e 0 set_fmode
PUBLIC 1c724 0 c_exit
PUBLIC 1c72a 0 register_thread_local_exe_atexit_callback
PUBLIC 1c730 0 configthreadlocale
PUBLIC 1c736 0 set_new_mode
PUBLIC 1c73c 0 _p__commode
PUBLIC 1c742 0 terminate
FUNC 1c750 19b 0 WinMain
FUNC 1c900 4e 0 _chkstk
PUBLIC 1c94e 0 memcmp
FUNC 1c970 2 0 guard_dispatch_icall_nop
FUNC 1c990 6 0 guard_xfg_dispatch_icall_nop
FUNC 1c9a0 19 0 static  `TestThread::TestThread'::`1'::dtor$0()
FUNC 1c9c0 1c 0 static  `crashpadHandler::version'::`1'::dtor$0()
FUNC 1c9dc 1c 0 static  `crashpadHandler::version'::`1'::dtor$1()
FUNC 1c9f8 1c 0 static  `crashpadHandler::version'::`1'::dtor$2()
FUNC 1ca14 19 0 static  `crashpadHandler::version'::`1'::dtor$3()
FUNC 1ca2d 1d 0 static  `crashpadHandler::crashpadHandler'::`1'::dtor$0()
FUNC 1ca4a 18 0 static  `crashpadHandler::initCrashpad'::`1'::dtor$0()
FUNC 1ca62 1b 0 static  `crashpadHandler::initCrashpad'::`1'::dtor$1()
FUNC 1ca7d 1b 0 static  `crashpadHandler::initCrashpad'::`1'::dtor$2()
FUNC 1ca98 1b 0 static  `crashpadHandler::initCrashpad'::`1'::dtor$3()
FUNC 1cab3 1b 0 static  `crashpadHandler::initCrashpad'::`1'::dtor$4()
FUNC 1cace 1b 0 static  `crashpadHandler::initCrashpad'::`1'::dtor$5()
FUNC 1cae9 1b 0 static  `crashpadHandler::initCrashpad'::`1'::dtor$6()
FUNC 1cb04 18 0 static  `crashpadHandler::initCrashpad'::`1'::dtor$8()
FUNC 1cb1c 1b 0 static  `crashpadHandler::initCrashpad'::`1'::dtor$9()
FUNC 1cb37 1b 0 static  `crashpadHandler::initCrashpad'::`1'::dtor$10()
FUNC 1cb52 1b 0 static  `crashpadHandler::initCrashpad'::`1'::dtor$11()
FUNC 1cb6d 19 0 static  `crashpadHandler::dumpFileList'::`1'::dtor$0()
FUNC 1cb86 19 0 static  `crashpadHandler::dumpFileList'::`1'::dtor$1()
FUNC 1cb9f 18 0 static  `crashpadHandler::dumpFileList'::`1'::dtor$2()
FUNC 1cbb7 19 0 static  `crashpadHandler::setDumpPath'::`1'::dtor$0()
FUNC 1cbd0 19 0 static  `crashpadHandler::checkPath'::`1'::dtor$0()
FUNC 1cbe9 19 0 static  `crashpadHandler::checkPath'::`1'::dtor$1()
FUNC 1cc02 19 0 static  `crashpadHandler::checkPath'::`1'::dtor$2()
FUNC 1cc1b 1c 0 static  `crashpadHandler::checkPath'::`1'::dtor$4()
FUNC 1cc37 1c 0 static  `crashpadHandler::checkPath'::`1'::dtor$5()
FUNC 1cc53 1c 0 static  `crashpadHandler::checkPath'::`1'::dtor$6()
FUNC 1cc6f 1c 0 static  `crashpadHandler::checkPath'::`1'::dtor$7()
FUNC 1cc8b 1c 0 static  `crashpadHandler::checkPath'::`1'::dtor$8()
FUNC 1cca7 19 0 static  `crashpadHandlerBuilder::checkPath'::`1'::dtor$0()
FUNC 1ccc0 19 0 static  `crashpadHandlerBuilder::checkPath'::`1'::dtor$1()
FUNC 1ccd9 19 0 static  `crashpadHandlerBuilder::checkPath'::`1'::dtor$2()
FUNC 1ccf2 1c 0 static  `crashpadHandlerBuilder::checkPath'::`1'::dtor$4()
FUNC 1cd0e 1c 0 static  `crashpadHandlerBuilder::checkPath'::`1'::dtor$5()
FUNC 1cd2a 1c 0 static  `crashpadHandlerBuilder::checkPath'::`1'::dtor$6()
FUNC 1cd46 1c 0 static  `crashpadHandlerBuilder::checkPath'::`1'::dtor$7()
FUNC 1cd62 1c 0 static  `crashpadHandlerBuilder::checkPath'::`1'::dtor$8()
FUNC 1cd7e 19 0 static  `urlToStdString'::`1'::dtor$0()
FUNC 1cda0 4a 0 static  `std::vector<std::basic_string<char,std::char_traits<char>,std::allocator<char> >,std::allocator<std::basic_string<char,std::char_traits<char>,std::allocator<char> > > >::_Emplace_reallocate<std::basic_string<char,std::char_traits<char>,std::allocator<char> > >'::`1'::catch$0()
FUNC 1cdf0 1d 0 static  `crashpadHandlerPrivate::crashpadHandlerPrivate'::`1'::dtor$0()
FUNC 1ce10 1d 0 static  `crashpadHandlerPrivate::crashpadHandlerPrivate'::`1'::dtor$1()
FUNC 1ce30 1d 0 static  `crashpadHandlerPrivate::crashpadHandlerPrivate'::`1'::dtor$2()
FUNC m 1ce50 19 0 static  `operator+'::`1'::dtor$0()
FUNC m 1ce70 19 0 static  `Ui_crashPadReporterExample::retranslateUi'::`1'::dtor$0()
FUNC 1ce90 3b 0 static  `QList<QString>::append'::`1'::catch$0()
FUNC 1ced0 3b 0 static  `QList<QString>::append'::`1'::catch$1()
FUNC 1cf10 32 0 static  `QList<QString>::append'::`1'::catch$2()
FUNC 1cf50 43 0 static  `QList<QString>::detach_helper_grow'::`1'::catch$0()
FUNC 1cfa0 8a 0 static  `QList<QString>::detach_helper_grow'::`1'::catch$1()
FUNC 1d030 1d 0 static  `Singleton<crashpadHandler>::init'::`1'::dtor$0()
FUNC 1d050 7e 0 static  `QList<QString>::node_copy'::`1'::catch$0()
FUNC 1d0d0 5b 0 static  `QList<QString>::node_copy'::`1'::catch$1()
FUNC 1d130 1c 0 static  `crashPadReporterExample::crashPadReporterExample'::`1'::dtor$0()
FUNC 1d14c 1c 0 static  `crashPadReporterExample::crashPadReporterExample'::`1'::dtor$1()
FUNC 1d168 1c 0 static  `crashPadReporterExample::crashPadReporterExample'::`1'::dtor$2()
FUNC 1d184 19 0 static  `crashPadReporterExample::crashPadReporterExample'::`1'::dtor$3()
FUNC 1d19d 1c 0 static  `crashPadReporterExample::crashPadReporterExample'::`1'::dtor$4()
FUNC 1d1b9 19 0 static  `crashPadReporterExample::crashPadReporterExample'::`1'::dtor$5()
FUNC 1d1d2 1b 0 static  `crashPadReporterExample::crashPadReporterExample'::`1'::dtor$6()
FUNC 1d1ed 1c 0 static  `crashPadReporterExample::crashPadReporterExample'::`1'::dtor$7()
FUNC 1d209 19 0 static  `crashPadReporterExample::crashInThread'::`1'::dtor$0()
FUNC 1d222 18 0 static  `crashPadReporterExample::crashInThread'::`1'::dtor$1()
FUNC 1d23a 18 0 static  `crashPadReporterExample::crashInThread'::`1'::dtor$2()
FUNC 1d252 1c 0 static  main$dtor$0()
FUNC 1d26e 19 0 static  main$dtor$1()
FUNC 1d287 19 0 static  main$dtor$2()
FUNC 1d2a0 19 0 static  main$dtor$3()
FUNC 1d2b9 19 0 static  main$dtor$4()
FUNC 1d2d2 1b 0 static  main$dtor$5()
FUNC 1d2ed 19 0 static  main$dtor$6()
FUNC 1d306 19 0 static  main$dtor$7()
FUNC 1d31f 19 0 static  main$dtor$8()
FUNC 1d338 19 0 static  main$dtor$9()
FUNC 1d351 19 0 static  main$dtor$10()
FUNC 1d36a 1c 0 static  main$dtor$11()
FUNC 1d386 1b 0 static  main$dtor$12()
FUNC 1d3b0 19 0 static  `Ui_crashPadReporterExample::retranslateUi'::`1'::dtor$1()
FUNC 1d3d0 19 0 static  `Ui_crashPadReporterExample::retranslateUi'::`1'::dtor$2()
FUNC 1d3f0 1c 0 static  `Ui_crashPadReporterExample::retranslateUi'::`1'::dtor$3()
FUNC 1d410 1c 0 static  `Ui_crashPadReporterExample::retranslateUi'::`1'::dtor$4()
FUNC 1d430 1c 0 static  `Ui_crashPadReporterExample::retranslateUi'::`1'::dtor$5()
FUNC 1d450 1c 0 static  `Ui_crashPadReporterExample::retranslateUi'::`1'::dtor$6()
FUNC 1d470 1c 0 static  `Ui_crashPadReporterExample::setupUi'::`1'::dtor$0()
FUNC 1d490 1c 0 static  `Ui_crashPadReporterExample::setupUi'::`1'::dtor$1()
FUNC 1d4b0 1d 0 static  `Ui_crashPadReporterExample::setupUi'::`1'::dtor$2()
FUNC 1d4d0 1c 0 static  `Ui_crashPadReporterExample::setupUi'::`1'::dtor$3()
FUNC 1d4f0 1d 0 static  `Ui_crashPadReporterExample::setupUi'::`1'::dtor$4()
FUNC 1d510 1c 0 static  `Ui_crashPadReporterExample::setupUi'::`1'::dtor$5()
FUNC 1d530 1d 0 static  `Ui_crashPadReporterExample::setupUi'::`1'::dtor$6()
FUNC 1d550 1c 0 static  `Ui_crashPadReporterExample::setupUi'::`1'::dtor$7()
FUNC 1d570 1d 0 static  `Ui_crashPadReporterExample::setupUi'::`1'::dtor$8()
FUNC 1d590 1c 0 static  `Ui_crashPadReporterExample::setupUi'::`1'::dtor$9()
FUNC 1d5b0 1d 0 static  `Ui_crashPadReporterExample::setupUi'::`1'::dtor$10()
FUNC 1d5d0 1c 0 static  `Ui_crashPadReporterExample::setupUi'::`1'::dtor$11()
FUNC 1d5f0 1c 0 static  `Ui_crashPadReporterExample::setupUi'::`1'::dtor$12()
FUNC 1d610 1c 0 static  `Ui_crashPadReporterExample::setupUi'::`1'::dtor$13()
FUNC 1d630 1d 0 static  `Ui_crashPadReporterExample::setupUi'::`1'::dtor$14()
FUNC 1d650 1c 0 static  `Ui_crashPadReporterExample::setupUi'::`1'::dtor$15()
FUNC 1d670 1d 0 static  `Ui_crashPadReporterExample::setupUi'::`1'::dtor$16()
FUNC 1d690 1c 0 static  `Ui_crashPadReporterExample::setupUi'::`1'::dtor$17()
FUNC 1d6b0 1d 0 static  `Ui_crashPadReporterExample::setupUi'::`1'::dtor$18()
FUNC 1d6d0 1c 0 static  `Ui_crashPadReporterExample::setupUi'::`1'::dtor$19()
FUNC 1d6f0 1d 0 static  `Ui_crashPadReporterExample::setupUi'::`1'::dtor$20()
FUNC 1d710 1c 0 static  `Ui_crashPadReporterExample::setupUi'::`1'::dtor$21()
FUNC 1d730 1d 0 static  `Ui_crashPadReporterExample::setupUi'::`1'::dtor$22()
FUNC 1d750 1c 0 static  `Ui_crashPadReporterExample::setupUi'::`1'::dtor$23()
FUNC 1d76c 18 0 static  __scrt_is_nonwritable_in_current_image$filt$0()
FUNC 1d784 1e 0 static  `__scrt_common_main_seh'::`1'::filt$0()
FUNC 1d7b0 15 0 static void `dynamic atexit destructor for 'Singleton<crashpadHandler>::tptr''()
STACK CFI INIT 1000 23 .cfa: $rsp .ra: .cfa 8 - ^
STACK CFI 1000 .cfa: $rsp 48 +
STACK CFI INIT 1030 55 .cfa: $rsp .ra: .cfa 8 - ^
STACK CFI 1030 .cfa: $rsp 48 +
STACK CFI INIT 1090 55 .cfa: $rsp .ra: .cfa 8 - ^
STACK CFI 1090 .cfa: $rsp 48 +
STACK CFI INIT 1120 3d .cfa: $rsp .ra: .cfa 8 - ^
STACK CFI 1120 .cfa: $rsp 64 +
STACK CFI INIT 1170 2b .cfa: $rsp .ra: .cfa 8 - ^
STACK CFI 1170 .cfa: $rsp 48 +
STACK CFI INIT 11a0 1e .cfa: $rsp .ra: .cfa 8 - ^
STACK CFI 11a0 .cfa: $rsp 64 +
STACK CFI INIT 11e0 17 .cfa: $rsp .ra: .cfa 8 - ^
STACK CFI 11e0 .cfa: $rsp 64 +
STACK CFI INIT 1210 12 .cfa: $rsp .ra: .cfa 8 - ^
STACK CFI 1210 .cfa: $rsp 48 +
STACK CFI INIT 12b0 57 .cfa: $rsp .ra: .cfa 8 - ^
STACK CFI 12b0 .cfa: $rsp 192 +
STACK CFI INIT 1307 4c .cfa: $rsp .ra: .cfa 8 - ^
STACK CFI 1307 .cfa: $rsp 192 +
STACK CFI INIT 1353 26e .cfa: $rsp .ra: .cfa 8 - ^
STACK CFI 1353 .cfa: $rsp 192 +
STACK CFI INIT 15c1 10 .cfa: $rsp .ra: .cfa 8 - ^
STACK CFI 15c1 .cfa: $rsp 192 +
STACK CFI INIT 15d1 6b .cfa: $rsp .ra: .cfa 8 - ^
STACK CFI 15d1 .cfa: $rsp 192 +
STACK CFI INIT 163c c .cfa: $rsp .ra: .cfa 8 - ^
STACK CFI 163c .cfa: $rsp 192 +
STACK CFI INIT 1650 a8 .cfa: $rsp .ra: .cfa 8 - ^
STACK CFI 1650 .cfa: $rsp 48 +
STACK CFI INIT 1700 62 .cfa: $rsp .ra: .cfa 8 - ^
STACK CFI 1700 .cfa: $rsp 48 +
STACK CFI INIT 1770 16b .cfa: $rsp .ra: .cfa 8 - ^
STACK CFI 1770 .cfa: $rsp 48 +
STACK CFI INIT 18e0 b6 .cfa: $rsp .ra: .cfa 8 - ^
STACK CFI 18e0 .cfa: $rsp 48 +
STACK CFI INIT 19a0 f6 .cfa: $rsp .ra: .cfa 8 - ^
STACK CFI 19a0 .cfa: $rsp 160 +
STACK CFI INIT 1a96 fe .cfa: $rsp .ra: .cfa 8 - ^
STACK CFI 1a96 .cfa: $rsp 160 +
STACK CFI INIT 1b94 1ab .cfa: $rsp .ra: .cfa 8 - ^
STACK CFI 1b94 .cfa: $rsp 160 +
STACK CFI INIT 1d40 1ce .cfa: $rsp .ra: .cfa 8 - ^
STACK CFI 1d40 .cfa: $rsp 128 +
STACK CFI INIT 1f10 33b .cfa: $rsp .ra: .cfa 8 - ^
STACK CFI 1f10 .cfa: $rsp 192 +
STACK CFI INIT 2250 28 .cfa: $rsp .ra: .cfa 8 - ^
STACK CFI 2250 .cfa: $rsp 64 +
STACK CFI INIT 2278 db .cfa: $rsp .ra: .cfa 8 - ^
STACK CFI 2278 .cfa: $rsp 64 +
STACK CFI INIT 2353 8 .cfa: $rsp .ra: .cfa 8 - ^
STACK CFI 2353 .cfa: $rsp 64 +
STACK CFI INIT 2360 161 .cfa: $rsp .ra: .cfa 8 - ^
STACK CFI 2360 .cfa: $rsp 320 +
STACK CFI INIT 24d0 7e .cfa: $rsp .ra: .cfa 8 - ^
STACK CFI 24d0 .cfa: $rsp 80 +
STACK CFI INIT 254e e4 .cfa: $rsp .ra: .cfa 8 - ^
STACK CFI 254e .cfa: $rsp 80 +
STACK CFI INIT 2632 1a .cfa: $rsp .ra: .cfa 8 - ^
STACK CFI 2632 .cfa: $rsp 80 +
STACK CFI INIT 2650 9c .cfa: $rsp .ra: .cfa 8 - ^
STACK CFI 2650 .cfa: $rsp 48 +
STACK CFI INIT 26f0 121 .cfa: $rsp .ra: .cfa 8 - ^
STACK CFI 26f0 .cfa: $rsp 64 +
STACK CFI INIT 2820 77 .cfa: $rsp .ra: .cfa 8 - ^
STACK CFI 2820 .cfa: $rsp 80 +
STACK CFI INIT 2897 db .cfa: $rsp .ra: .cfa 8 - ^
STACK CFI 2897 .cfa: $rsp 80 +
STACK CFI INIT 2972 20 .cfa: $rsp .ra: .cfa 8 - ^
STACK CFI 2972 .cfa: $rsp 80 +
STACK CFI INIT 29a0 12 .cfa: $rsp .ra: .cfa 8 - ^
STACK CFI 29a0 .cfa: $rsp 48 +
STACK CFI INIT 29c0 6c .cfa: $rsp .ra: .cfa 8 - ^
STACK CFI 29c0 .cfa: $rsp 48 +
STACK CFI INIT 2a30 3f .cfa: $rsp .ra: .cfa 8 - ^
STACK CFI 2a30 .cfa: $rsp 48 +
STACK CFI INIT 2a70 1ae .cfa: $rsp .ra: .cfa 8 - ^
STACK CFI 2a70 .cfa: $rsp 48 +
STACK CFI INIT 2c30 ed .cfa: $rsp .ra: .cfa 8 - ^
STACK CFI 2c30 .cfa: $rsp 48 +
STACK CFI INIT 2d20 17d .cfa: $rsp .ra: .cfa 8 - ^
STACK CFI 2d20 .cfa: $rsp 112 +
STACK CFI INIT 2ea0 5c3 .cfa: $rsp .ra: .cfa 8 - ^
STACK CFI 2ea0 .cfa: $rsp 528 +
STACK CFI INIT 3470 204 .cfa: $rsp .ra: .cfa 8 - ^
STACK CFI 3470 .cfa: $rsp 672 +
STACK CFI INIT 3680 e9 .cfa: $rsp .ra: .cfa 8 - ^
STACK CFI 3680 .cfa: $rsp 8 +
STACK CFI INIT 3770 154 .cfa: $rsp .ra: .cfa 8 - ^
STACK CFI 3770 .cfa: $rsp 16 +
STACK CFI INIT 39a0 b3 .cfa: $rsp .ra: .cfa 8 - ^
STACK CFI 39a0 .cfa: $rsp 80 +
STACK CFI INIT 3a53 c .cfa: $rsp .ra: .cfa 8 - ^
STACK CFI 3a53 .cfa: $rsp 80 +
STACK CFI INIT 3a5f 94 .cfa: $rsp .ra: .cfa 8 - ^
STACK CFI 3a5f .cfa: $rsp 80 +
STACK CFI INIT 3af3 3c .cfa: $rsp .ra: .cfa 8 - ^
STACK CFI 3af3 .cfa: $rsp 80 +
STACK CFI INIT 3b2f 16 .cfa: $rsp .ra: .cfa 8 - ^
STACK CFI 3b2f .cfa: $rsp 80 +
STACK CFI INIT 3b50 b7 .cfa: $rsp .ra: .cfa 8 - ^
STACK CFI 3b50 .cfa: $rsp 48 +
STACK CFI INIT 3c10 8c .cfa: $rsp .ra: .cfa 8 - ^
STACK CFI 3c10 .cfa: $rsp 48 +
STACK CFI INIT 3ca0 5f .cfa: $rsp .ra: .cfa 8 - ^
STACK CFI 3ca0 .cfa: $rsp 48 +
STACK CFI INIT 3d30 3b .cfa: $rsp .ra: .cfa 8 - ^
STACK CFI 3d30 .cfa: $rsp 48 +
STACK CFI INIT 3d70 34 .cfa: $rsp .ra: .cfa 8 - ^
STACK CFI 3d70 .cfa: $rsp 48 +
STACK CFI INIT 3db0 92 .cfa: $rsp .ra: .cfa 8 - ^
STACK CFI 3db0 .cfa: $rsp 48 +
STACK CFI INIT 3e50 5b .cfa: $rsp .ra: .cfa 8 - ^
STACK CFI 3e50 .cfa: $rsp 64 +
STACK CFI INIT 3eab d9 .cfa: $rsp .ra: .cfa 8 - ^
STACK CFI 3eab .cfa: $rsp 64 +
STACK CFI INIT 3f84 16 .cfa: $rsp .ra: .cfa 8 - ^
STACK CFI 3f84 .cfa: $rsp 64 +
STACK CFI INIT 3f9a 7 .cfa: $rsp .ra: .cfa 8 - ^
STACK CFI 3f9a .cfa: $rsp 64 +
STACK CFI INIT 3fa1 6 .cfa: $rsp .ra: .cfa 8 - ^
STACK CFI 3fa1 .cfa: $rsp 64 +
STACK CFI INIT 3fa7 6 .cfa: $rsp .ra: .cfa 8 - ^
STACK CFI 3fa7 .cfa: $rsp 64 +
STACK CFI INIT 3fb0 8c .cfa: $rsp .ra: .cfa 8 - ^
STACK CFI 3fb0 .cfa: $rsp 48 +
STACK CFI INIT 4040 59 .cfa: $rsp .ra: .cfa 8 - ^
STACK CFI 4040 .cfa: $rsp 48 +
STACK CFI INIT 40a0 3e .cfa: $rsp .ra: .cfa 8 - ^
STACK CFI 40a0 .cfa: $rsp 48 +
STACK CFI INIT 40e0 c .cfa: $rsp .ra: .cfa 8 - ^
STACK CFI 40e0 .cfa: $rsp 48 +
STACK CFI INIT 40ec 66 .cfa: $rsp .ra: .cfa 8 - ^
STACK CFI 40ec .cfa: $rsp 48 +
STACK CFI INIT 4152 a3 .cfa: $rsp .ra: .cfa 8 - ^
STACK CFI 4152 .cfa: $rsp 48 +
STACK CFI INIT 41f5 49 .cfa: $rsp .ra: .cfa 8 - ^
STACK CFI 41f5 .cfa: $rsp 48 +
STACK CFI INIT 423e f .cfa: $rsp .ra: .cfa 8 - ^
STACK CFI 423e .cfa: $rsp 48 +
STACK CFI INIT 4250 39 .cfa: $rsp .ra: .cfa 8 - ^
STACK CFI 4250 .cfa: $rsp 48 +
STACK CFI INIT 4290 193 .cfa: $rsp .ra: .cfa 8 - ^
STACK CFI 4290 .cfa: $rsp 48 +
STACK CFI INIT 4430 5a .cfa: $rsp .ra: .cfa 8 - ^
STACK CFI 4430 .cfa: $rsp 80 +
STACK CFI INIT 448a f3 .cfa: $rsp .ra: .cfa 8 - ^
STACK CFI 448a .cfa: $rsp 80 +
STACK CFI INIT 457d 16 .cfa: $rsp .ra: .cfa 8 - ^
STACK CFI 457d .cfa: $rsp 80 +
STACK CFI INIT 45a0 21 .cfa: $rsp .ra: .cfa 8 - ^
STACK CFI 45a0 .cfa: $rsp 80 +
STACK CFI INIT 45c1 123 .cfa: $rsp .ra: .cfa 8 - ^
STACK CFI 45c1 .cfa: $rsp 80 +
STACK CFI INIT 46e4 12 .cfa: $rsp .ra: .cfa 8 - ^
STACK CFI 46e4 .cfa: $rsp 80 +
STACK CFI INIT 4700 3d .cfa: $rsp .ra: .cfa 8 - ^
STACK CFI 4700 .cfa: $rsp 48 +
STACK CFI INIT 4740 23 .cfa: $rsp .ra: .cfa 8 - ^
STACK CFI 4740 .cfa: $rsp 64 +
STACK CFI INIT 4763 3f .cfa: $rsp .ra: .cfa 8 - ^
STACK CFI 4763 .cfa: $rsp 64 +
STACK CFI INIT 47a2 1e .cfa: $rsp .ra: .cfa 8 - ^
STACK CFI 47a2 .cfa: $rsp 64 +
STACK CFI INIT 47c0 30e .cfa: $rsp .ra: .cfa 8 - ^
STACK CFI 47c0 .cfa: $rsp 1168 +
STACK CFI INIT 4ad0 2e .cfa: $rsp .ra: .cfa 8 - ^
STACK CFI 4ad0 .cfa: $rsp 80 +
STACK CFI INIT 4afe 14d .cfa: $rsp .ra: .cfa 8 - ^
STACK CFI 4afe .cfa: $rsp 80 +
STACK CFI INIT 4c4b 6 .cfa: $rsp .ra: .cfa 8 - ^
STACK CFI 4c4b .cfa: $rsp 80 +
STACK CFI INIT 4c51 6 .cfa: $rsp .ra: .cfa 8 - ^
STACK CFI 4c51 .cfa: $rsp 80 +
STACK CFI INIT 4c60 156 .cfa: $rsp .ra: .cfa 8 - ^
STACK CFI 4c60 .cfa: $rsp 48 +
STACK CFI INIT 4dc0 b8 .cfa: $rsp .ra: .cfa 8 - ^
STACK CFI 4dc0 .cfa: $rsp 48 +
STACK CFI INIT 4e80 28 .cfa: $rsp .ra: .cfa 8 - ^
STACK CFI 4e80 .cfa: $rsp 64 +
STACK CFI INIT 4ea8 4c .cfa: $rsp .ra: .cfa 8 - ^
STACK CFI 4ea8 .cfa: $rsp 64 +
STACK CFI INIT 4ef4 1a .cfa: $rsp .ra: .cfa 8 - ^
STACK CFI 4ef4 .cfa: $rsp 64 +
STACK CFI INIT 4f10 32 .cfa: $rsp .ra: .cfa 8 - ^
STACK CFI 4f10 .cfa: $rsp 64 +
STACK CFI INIT 4f42 125 .cfa: $rsp .ra: .cfa 8 - ^
STACK CFI 4f42 .cfa: $rsp 64 +
STACK CFI INIT 5067 6 .cfa: $rsp .ra: .cfa 8 - ^
STACK CFI 5067 .cfa: $rsp 64 +
STACK CFI INIT 506d 6 .cfa: $rsp .ra: .cfa 8 - ^
STACK CFI 506d .cfa: $rsp 64 +
STACK CFI INIT 5080 2e .cfa: $rsp .ra: .cfa 8 - ^
STACK CFI 5080 .cfa: $rsp 80 +
STACK CFI INIT 50ae 14e .cfa: $rsp .ra: .cfa 8 - ^
STACK CFI 50ae .cfa: $rsp 80 +
STACK CFI INIT 51fc 6 .cfa: $rsp .ra: .cfa 8 - ^
STACK CFI 51fc .cfa: $rsp 80 +
STACK CFI INIT 5202 6 .cfa: $rsp .ra: .cfa 8 - ^
STACK CFI 5202 .cfa: $rsp 80 +
STACK CFI INIT 5210 1c .cfa: $rsp .ra: .cfa 8 - ^
STACK CFI 5210 .cfa: $rsp 64 +
STACK CFI INIT 522c 12 .cfa: $rsp .ra: .cfa 8 - ^
STACK CFI 522c .cfa: $rsp 64 +
STACK CFI INIT 523e 13f .cfa: $rsp .ra: .cfa 8 - ^
STACK CFI 523e .cfa: $rsp 64 +
STACK CFI INIT 537d 5 .cfa: $rsp .ra: .cfa 8 - ^
STACK CFI 537d .cfa: $rsp 64 +
STACK CFI INIT 5382 9 .cfa: $rsp .ra: .cfa 8 - ^
STACK CFI 5382 .cfa: $rsp 64 +
STACK CFI INIT 538b d .cfa: $rsp .ra: .cfa 8 - ^
STACK CFI 538b .cfa: $rsp 64 +
STACK CFI INIT 53a0 4c .cfa: $rsp .ra: .cfa 8 - ^
STACK CFI 53a0 .cfa: $rsp 64 +
STACK CFI INIT 53ec 1f .cfa: $rsp .ra: .cfa 8 - ^
STACK CFI 53ec .cfa: $rsp 64 +
STACK CFI INIT 540b 61 .cfa: $rsp .ra: .cfa 8 - ^
STACK CFI 540b .cfa: $rsp 64 +
STACK CFI INIT 546c 82 .cfa: $rsp .ra: .cfa 8 - ^
STACK CFI 546c .cfa: $rsp 64 +
STACK CFI INIT 54ee 6 .cfa: $rsp .ra: .cfa 8 - ^
STACK CFI 54ee .cfa: $rsp 64 +
STACK CFI INIT 5500 44 .cfa: $rsp .ra: .cfa 8 - ^
STACK CFI 5500 .cfa: $rsp 48 +
STACK CFI INIT 5544 51 .cfa: $rsp .ra: .cfa 8 - ^
STACK CFI 5544 .cfa: $rsp 48 +
STACK CFI INIT 5595 b .cfa: $rsp .ra: .cfa 8 - ^
STACK CFI 5595 .cfa: $rsp 48 +
STACK CFI INIT 55a0 7 .cfa: $rsp .ra: .cfa 8 - ^
STACK CFI 55a0 .cfa: $rsp 48 +
STACK CFI INIT 55b0 29 .cfa: $rsp .ra: .cfa 8 - ^
STACK CFI 55b0 .cfa: $rsp 64 +
STACK CFI INIT 55d9 10f .cfa: $rsp .ra: .cfa 8 - ^
STACK CFI 55d9 .cfa: $rsp 64 +
STACK CFI INIT 56e8 6 .cfa: $rsp .ra: .cfa 8 - ^
STACK CFI 56e8 .cfa: $rsp 64 +
STACK CFI INIT 56ee 6 .cfa: $rsp .ra: .cfa 8 - ^
STACK CFI 56ee .cfa: $rsp 64 +
STACK CFI INIT 5700 19f .cfa: $rsp .ra: .cfa 8 - ^
STACK CFI 5700 .cfa: $rsp 8 +
STACK CFI INIT 58a0 12 .cfa: $rsp .ra: .cfa 8 - ^
STACK CFI 58a0 .cfa: $rsp 48 +
STACK CFI INIT 58d0 2b .cfa: $rsp .ra: .cfa 8 - ^
STACK CFI 58d0 .cfa: $rsp 48 +
STACK CFI INIT 5900 80 .cfa: $rsp .ra: .cfa 8 - ^
STACK CFI 5900 .cfa: $rsp 48 +
STACK CFI INIT 5980 407 .cfa: $rsp .ra: .cfa 8 - ^
STACK CFI 5980 .cfa: $rsp 480 +
STACK CFI INIT 5d90 1d1 .cfa: $rsp .ra: .cfa 8 - ^
STACK CFI 5d90 .cfa: $rsp 144 +
STACK CFI INIT 5f70 23c .cfa: $rsp .ra: .cfa 8 - ^
STACK CFI 5f70 .cfa: $rsp 192 +
STACK CFI INIT 61b0 b4 .cfa: $rsp .ra: .cfa 8 - ^
STACK CFI 61b0 .cfa: $rsp 48 +
STACK CFI INIT 6270 25 .cfa: $rsp .ra: .cfa 8 - ^
STACK CFI 6270 .cfa: $rsp 64 +
STACK CFI INIT 6295 b9 .cfa: $rsp .ra: .cfa 8 - ^
STACK CFI 6295 .cfa: $rsp 64 +
STACK CFI INIT 634e 11 .cfa: $rsp .ra: .cfa 8 - ^
STACK CFI 634e .cfa: $rsp 64 +
STACK CFI INIT 6360 b7 .cfa: $rsp .ra: .cfa 8 - ^
STACK CFI 6360 .cfa: $rsp 64 +
STACK CFI INIT 6420 25 .cfa: $rsp .ra: .cfa 8 - ^
STACK CFI 6420 .cfa: $rsp 320 +
STACK CFI INIT 6445 94 .cfa: $rsp .ra: .cfa 8 - ^
STACK CFI 6445 .cfa: $rsp 320 +
STACK CFI INIT 64d9 16 .cfa: $rsp .ra: .cfa 8 - ^
STACK CFI 64d9 .cfa: $rsp 320 +
STACK CFI INIT 64f0 130 .cfa: $rsp .ra: .cfa 8 - ^
STACK CFI 64f0 .cfa: $rsp 784 +
STACK CFI INIT 6620 16e .cfa: $rsp .ra: .cfa 8 - ^
STACK CFI 6620 .cfa: $rsp 784 +
STACK CFI INIT 678e 5ca .cfa: $rsp .ra: .cfa 8 - ^
STACK CFI 678e .cfa: $rsp 784 +
STACK CFI INIT 6d58 10 .cfa: $rsp .ra: .cfa 8 - ^
STACK CFI 6d58 .cfa: $rsp 784 +
STACK CFI INIT 6d68 1e .cfa: $rsp .ra: .cfa 8 - ^
STACK CFI 6d68 .cfa: $rsp 784 +
STACK CFI INIT 6d86 51 .cfa: $rsp .ra: .cfa 8 - ^
STACK CFI 6d86 .cfa: $rsp 784 +
STACK CFI INIT 6dd7 3d .cfa: $rsp .ra: .cfa 8 - ^
STACK CFI 6dd7 .cfa: $rsp 784 +
STACK CFI INIT 6e14 6 .cfa: $rsp .ra: .cfa 8 - ^
STACK CFI 6e14 .cfa: $rsp 784 +
STACK CFI INIT 6e20 8c .cfa: $rsp .ra: .cfa 8 - ^
STACK CFI 6e20 .cfa: $rsp 496 +
STACK CFI INIT 6eac 7f .cfa: $rsp .ra: .cfa 8 - ^
STACK CFI 6eac .cfa: $rsp 496 +
STACK CFI INIT 6f2b c3 .cfa: $rsp .ra: .cfa 8 - ^
STACK CFI 6f2b .cfa: $rsp 496 +
STACK CFI INIT 6fee 586 .cfa: $rsp .ra: .cfa 8 - ^
STACK CFI 6fee .cfa: $rsp 496 +
STACK CFI INIT 7574 8 .cfa: $rsp .ra: .cfa 8 - ^
STACK CFI 7574 .cfa: $rsp 496 +
STACK CFI INIT 757c 8 .cfa: $rsp .ra: .cfa 8 - ^
STACK CFI 757c .cfa: $rsp 496 +
STACK CFI INIT 7584 19 .cfa: $rsp .ra: .cfa 8 - ^
STACK CFI 7584 .cfa: $rsp 496 +
STACK CFI INIT 759d 6 .cfa: $rsp .ra: .cfa 8 - ^
STACK CFI 759d .cfa: $rsp 496 +
STACK CFI INIT 75a3 6 .cfa: $rsp .ra: .cfa 8 - ^
STACK CFI 75a3 .cfa: $rsp 496 +
STACK CFI INIT 75a9 6 .cfa: $rsp .ra: .cfa 8 - ^
STACK CFI 75a9 .cfa: $rsp 496 +
STACK CFI INIT 75b0 234 .cfa: $rsp .ra: .cfa 8 - ^
STACK CFI 75b0 .cfa: $rsp 352 +
STACK CFI INIT 77f0 18b .cfa: $rsp .ra: .cfa 8 - ^
STACK CFI 77f0 .cfa: $rsp 352 +
STACK CFI INIT 7980 193 .cfa: $rsp .ra: .cfa 8 - ^
STACK CFI 7980 .cfa: $rsp 176 +
STACK CFI INIT 7b20 a1b .cfa: $rsp .ra: .cfa 8 - ^
STACK CFI 7b20 .cfa: $rsp 1712 +
STACK CFI INIT 8540 f7 .cfa: $rsp .ra: .cfa 8 - ^
STACK CFI 8540 .cfa: $rsp 48 +
STACK CFI INIT 8640 2aa .cfa: $rsp .ra: .cfa 8 - ^
STACK CFI 8640 .cfa: $rsp 256 +
STACK CFI INIT 8900 3cb .cfa: $rsp .ra: .cfa 8 - ^
STACK CFI 8900 .cfa: $rsp 240 +
STACK CFI INIT 8cd0 88 .cfa: $rsp .ra: .cfa 8 - ^
STACK CFI 8cd0 .cfa: $rsp 496 +
STACK CFI INIT 8d58 4c3 .cfa: $rsp .ra: .cfa 8 - ^
STACK CFI 8d58 .cfa: $rsp 496 +
STACK CFI INIT 921b 20 .cfa: $rsp .ra: .cfa 8 - ^
STACK CFI 921b .cfa: $rsp 496 +
STACK CFI INIT 923b d .cfa: $rsp .ra: .cfa 8 - ^
STACK CFI 923b .cfa: $rsp 496 +
STACK CFI INIT 9250 c8 .cfa: $rsp .ra: .cfa 8 - ^
STACK CFI 9250 .cfa: $rsp 80 +
STACK CFI INIT 9320 96 .cfa: $rsp .ra: .cfa 8 - ^
STACK CFI 9320 .cfa: $rsp 48 +
STACK CFI INIT 93c0 62 .cfa: $rsp .ra: .cfa 8 - ^
STACK CFI 93c0 .cfa: $rsp 48 +
STACK CFI INIT 9430 65 .cfa: $rsp .ra: .cfa 8 - ^
STACK CFI 9430 .cfa: $rsp 48 +
STACK CFI INIT 94a0 6f .cfa: $rsp .ra: .cfa 8 - ^
STACK CFI 94a0 .cfa: $rsp 128 +
STACK CFI INIT 950f 138 .cfa: $rsp .ra: .cfa 8 - ^
STACK CFI 950f .cfa: $rsp 128 +
STACK CFI INIT 9647 95 .cfa: $rsp .ra: .cfa 8 - ^
STACK CFI 9647 .cfa: $rsp 128 +
STACK CFI INIT 96e0 185 .cfa: $rsp .ra: .cfa 8 - ^
STACK CFI 96e0 .cfa: $rsp 144 +
STACK CFI INIT 9870 28b .cfa: $rsp .ra: .cfa 8 - ^
STACK CFI 9870 .cfa: $rsp 432 +
STACK CFI INIT 9b00 594 .cfa: $rsp .ra: .cfa 8 - ^
STACK CFI 9b00 .cfa: $rsp 1648 +
STACK CFI INIT a0a0 7b .cfa: $rsp .ra: .cfa 8 - ^
STACK CFI a0a0 .cfa: $rsp 64 +
STACK CFI INIT a120 c2 .cfa: $rsp .ra: .cfa 8 - ^
STACK CFI a120 .cfa: $rsp 512 +
STACK CFI INIT a1e2 180 .cfa: $rsp .ra: .cfa 8 - ^
STACK CFI a1e2 .cfa: $rsp 512 +
STACK CFI INIT a362 10f .cfa: $rsp .ra: .cfa 8 - ^
STACK CFI a362 .cfa: $rsp 512 +
STACK CFI INIT a480 af .cfa: $rsp .ra: .cfa 8 - ^
STACK CFI a480 .cfa: $rsp 48 +
STACK CFI INIT a530 e6 .cfa: $rsp .ra: .cfa 8 - ^
STACK CFI a530 .cfa: $rsp 1216 +
STACK CFI INIT a616 78f .cfa: $rsp .ra: .cfa 8 - ^
STACK CFI a616 .cfa: $rsp 1216 +
STACK CFI INIT ada5 6 .cfa: $rsp .ra: .cfa 8 - ^
STACK CFI ada5 .cfa: $rsp 1216 +
STACK CFI INIT adb0 693 .cfa: $rsp .ra: .cfa 8 - ^
STACK CFI adb0 .cfa: $rsp 1232 +
STACK CFI INIT b450 b .cfa: $rsp .ra: .cfa 8 - ^
STACK CFI b450 .cfa: $rsp 64 +
STACK CFI INIT b45b 4f .cfa: $rsp .ra: .cfa 8 - ^
STACK CFI b45b .cfa: $rsp 64 +
STACK CFI INIT b4aa 11 .cfa: $rsp .ra: .cfa 8 - ^
STACK CFI b4aa .cfa: $rsp 64 +
STACK CFI INIT b4bb a .cfa: $rsp .ra: .cfa 8 - ^
STACK CFI b4bb .cfa: $rsp 64 +
STACK CFI INIT b4c5 1c .cfa: $rsp .ra: .cfa 8 - ^
STACK CFI b4c5 .cfa: $rsp 64 +
STACK CFI INIT b510 19 .cfa: $rsp .ra: .cfa 8 - ^
STACK CFI b510 .cfa: $rsp 368 +
STACK CFI INIT b529 43 .cfa: $rsp .ra: .cfa 8 - ^
STACK CFI b529 .cfa: $rsp 368 +
STACK CFI INIT b56c 7b .cfa: $rsp .ra: .cfa 8 - ^
STACK CFI b56c .cfa: $rsp 368 +
STACK CFI INIT b5e7 7f .cfa: $rsp .ra: .cfa 8 - ^
STACK CFI b5e7 .cfa: $rsp 368 +
STACK CFI INIT b666 9 .cfa: $rsp .ra: .cfa 8 - ^
STACK CFI b666 .cfa: $rsp 368 +
STACK CFI INIT b66f 7 .cfa: $rsp .ra: .cfa 8 - ^
STACK CFI b66f .cfa: $rsp 368 +
STACK CFI INIT b680 30 .cfa: $rsp .ra: .cfa 8 - ^
STACK CFI b680 .cfa: $rsp 64 +
STACK CFI INIT b6b0 b0 .cfa: $rsp .ra: .cfa 8 - ^
STACK CFI b6b0 .cfa: $rsp 64 +
STACK CFI INIT b760 28 .cfa: $rsp .ra: .cfa 8 - ^
STACK CFI b760 .cfa: $rsp 64 +
STACK CFI INIT b790 15 .cfa: $rsp .ra: .cfa 8 - ^
STACK CFI b790 .cfa: $rsp 48 +
STACK CFI INIT b7a5 3b .cfa: $rsp .ra: .cfa 8 - ^
STACK CFI b7a5 .cfa: $rsp 48 +
STACK CFI INIT b7e0 3f .cfa: $rsp .ra: .cfa 8 - ^
STACK CFI b7e0 .cfa: $rsp 48 +
STACK CFI INIT b820 b9 .cfa: $rsp .ra: .cfa 8 - ^
STACK CFI b820 .cfa: $rsp 96 +
STACK CFI INIT b8e0 da .cfa: $rsp .ra: .cfa 8 - ^
STACK CFI b8e0 .cfa: $rsp 48 +
STACK CFI INIT b9c0 15 .cfa: $rsp .ra: .cfa 8 - ^
STACK CFI b9c0 .cfa: $rsp 48 +
STACK CFI INIT b9d5 fe .cfa: $rsp .ra: .cfa 8 - ^
STACK CFI b9d5 .cfa: $rsp 48 +
STACK CFI INIT bad3 1 .cfa: $rsp .ra: .cfa 8 - ^
STACK CFI bad3 .cfa: $rsp 48 +
STACK CFI INIT bad4 7 .cfa: $rsp .ra: .cfa 8 - ^
STACK CFI bad4 .cfa: $rsp 48 +
STACK CFI INIT bae0 12 .cfa: $rsp .ra: .cfa 8 - ^
STACK CFI bae0 .cfa: $rsp 48 +
STACK CFI INIT bb00 120 .cfa: $rsp .ra: .cfa 8 - ^
STACK CFI bb00 .cfa: $rsp 96 +
STACK CFI INIT bc20 5f .cfa: $rsp .ra: .cfa 8 - ^
STACK CFI bc20 .cfa: $rsp 48 +
STACK CFI INIT bc7f d8 .cfa: $rsp .ra: .cfa 8 - ^
STACK CFI bc7f .cfa: $rsp 48 +
STACK CFI INIT bd57 18 .cfa: $rsp .ra: .cfa 8 - ^
STACK CFI bd57 .cfa: $rsp 48 +
STACK CFI INIT bd6f 7 .cfa: $rsp .ra: .cfa 8 - ^
STACK CFI bd6f .cfa: $rsp 48 +
STACK CFI INIT bd76 6 .cfa: $rsp .ra: .cfa 8 - ^
STACK CFI bd76 .cfa: $rsp 48 +
STACK CFI INIT bd7c 6 .cfa: $rsp .ra: .cfa 8 - ^
STACK CFI bd7c .cfa: $rsp 48 +
STACK CFI INIT bd90 6c .cfa: $rsp .ra: .cfa 8 - ^
STACK CFI bd90 .cfa: $rsp 48 +
STACK CFI INIT be00 b4 .cfa: $rsp .ra: .cfa 8 - ^
STACK CFI be00 .cfa: $rsp 48 +
STACK CFI INIT bec0 b4 .cfa: $rsp .ra: .cfa 8 - ^
STACK CFI bec0 .cfa: $rsp 48 +
STACK CFI INIT bf80 45 .cfa: $rsp .ra: .cfa 8 - ^
STACK CFI bf80 .cfa: $rsp 80 +
STACK CFI INIT bfc5 1b6 .cfa: $rsp .ra: .cfa 8 - ^
STACK CFI bfc5 .cfa: $rsp 80 +
STACK CFI INIT c17b 7 .cfa: $rsp .ra: .cfa 8 - ^
STACK CFI c17b .cfa: $rsp 80 +
STACK CFI INIT c182 6 .cfa: $rsp .ra: .cfa 8 - ^
STACK CFI c182 .cfa: $rsp 80 +
STACK CFI INIT c188 6 .cfa: $rsp .ra: .cfa 8 - ^
STACK CFI c188 .cfa: $rsp 80 +
STACK CFI INIT c1b0 79 .cfa: $rsp .ra: .cfa 8 - ^
STACK CFI c1b0 .cfa: $rsp 80 +
STACK CFI INIT c229 27a .cfa: $rsp .ra: .cfa 8 - ^
STACK CFI c229 .cfa: $rsp 80 +
STACK CFI INIT c4a3 7 .cfa: $rsp .ra: .cfa 8 - ^
STACK CFI c4a3 .cfa: $rsp 80 +
STACK CFI INIT c4aa 6 .cfa: $rsp .ra: .cfa 8 - ^
STACK CFI c4aa .cfa: $rsp 80 +
STACK CFI INIT c4b0 6 .cfa: $rsp .ra: .cfa 8 - ^
STACK CFI c4b0 .cfa: $rsp 80 +
STACK CFI INIT c4c0 47 .cfa: $rsp .ra: .cfa 8 - ^
STACK CFI c4c0 .cfa: $rsp 80 +
STACK CFI INIT c507 229 .cfa: $rsp .ra: .cfa 8 - ^
STACK CFI c507 .cfa: $rsp 80 +
STACK CFI INIT c730 7 .cfa: $rsp .ra: .cfa 8 - ^
STACK CFI c730 .cfa: $rsp 80 +
STACK CFI INIT c737 6 .cfa: $rsp .ra: .cfa 8 - ^
STACK CFI c737 .cfa: $rsp 80 +
STACK CFI INIT c73d 6 .cfa: $rsp .ra: .cfa 8 - ^
STACK CFI c73d .cfa: $rsp 80 +
STACK CFI INIT c750 12 .cfa: $rsp .ra: .cfa 8 - ^
STACK CFI c750 .cfa: $rsp 48 +
STACK CFI INIT c770 1d .cfa: $rsp .ra: .cfa 8 - ^
STACK CFI c770 .cfa: $rsp 48 +
STACK CFI INIT c78d 4e .cfa: $rsp .ra: .cfa 8 - ^
STACK CFI c78d .cfa: $rsp 48 +
STACK CFI INIT c7db 13 .cfa: $rsp .ra: .cfa 8 - ^
STACK CFI c7db .cfa: $rsp 48 +
STACK CFI INIT c7f0 27d .cfa: $rsp .ra: .cfa 8 - ^
STACK CFI c7f0 .cfa: $rsp 8 +
STACK CFI INIT ca70 13 .cfa: $rsp .ra: .cfa 8 - ^
STACK CFI ca70 .cfa: $rsp 48 +
STACK CFI INIT ca83 77 .cfa: $rsp .ra: .cfa 8 - ^
STACK CFI ca83 .cfa: $rsp 48 +
STACK CFI INIT cafa 1 .cfa: $rsp .ra: .cfa 8 - ^
STACK CFI cafa .cfa: $rsp 48 +
STACK CFI INIT cafb 7 .cfa: $rsp .ra: .cfa 8 - ^
STACK CFI cafb .cfa: $rsp 48 +
STACK CFI INIT cb10 86 .cfa: $rsp .ra: .cfa 8 - ^
STACK CFI cb10 .cfa: $rsp 48 +
STACK CFI INIT cbb0 15f .cfa: $rsp .ra: .cfa 8 - ^
STACK CFI cbb0 .cfa: $rsp 304 +
STACK CFI INIT cd10 c2 .cfa: $rsp .ra: .cfa 8 - ^
STACK CFI cd10 .cfa: $rsp 1472 +
STACK CFI INIT cde0 26d .cfa: $rsp .ra: .cfa 8 - ^
STACK CFI cde0 .cfa: $rsp 224 +
STACK CFI INIT d050 66f .cfa: $rsp .ra: .cfa 8 - ^
STACK CFI d050 .cfa: $rsp 800 +
STACK CFI INIT d6c0 373 .cfa: $rsp .ra: .cfa 8 - ^
STACK CFI d6c0 .cfa: $rsp 64 +
STACK CFI INIT da40 2a .cfa: $rsp .ra: .cfa 8 - ^
STACK CFI da40 .cfa: $rsp 48 +
STACK CFI INIT da70 fd .cfa: $rsp .ra: .cfa 8 - ^
STACK CFI da70 .cfa: $rsp 6736 +
STACK CFI INIT db6d 1e49 .cfa: $rsp .ra: .cfa 8 - ^
STACK CFI db6d .cfa: $rsp 6736 +
STACK CFI INIT f9c0 21 .cfa: $rsp .ra: .cfa 8 - ^
STACK CFI f9c0 .cfa: $rsp 48 +
STACK CFI INIT f9f0 65 .cfa: $rsp .ra: .cfa 8 - ^
STACK CFI f9f0 .cfa: $rsp 320 +
STACK CFI INIT fa55 81 .cfa: $rsp .ra: .cfa 8 - ^
STACK CFI fa55 .cfa: $rsp 320 +
STACK CFI INIT fad6 82 .cfa: $rsp .ra: .cfa 8 - ^
STACK CFI fad6 .cfa: $rsp 320 +
STACK CFI INIT fb80 6b .cfa: $rsp .ra: .cfa 8 - ^
STACK CFI fb80 .cfa: $rsp 48 +
STACK CFI INIT fbf0 228 .cfa: $rsp .ra: .cfa 8 - ^
STACK CFI fbf0 .cfa: $rsp 480 +
STACK CFI INIT fe20 20c .cfa: $rsp .ra: .cfa 8 - ^
STACK CFI fe20 .cfa: $rsp 320 +
STACK CFI INIT 10040 3d .cfa: $rsp .ra: .cfa 8 - ^
STACK CFI 10040 .cfa: $rsp 64 +
STACK CFI INIT 1007d c6 .cfa: $rsp .ra: .cfa 8 - ^
STACK CFI 1007d .cfa: $rsp 64 +
STACK CFI INIT 10143 6 .cfa: $rsp .ra: .cfa 8 - ^
STACK CFI 10143 .cfa: $rsp 64 +
STACK CFI INIT 10160 9a .cfa: $rsp .ra: .cfa 8 - ^
STACK CFI 10160 .cfa: $rsp 48 +
STACK CFI INIT 10200 6b .cfa: $rsp .ra: .cfa 8 - ^
STACK CFI 10200 .cfa: $rsp 48 +
STACK CFI INIT 10270 6b .cfa: $rsp .ra: .cfa 8 - ^
STACK CFI 10270 .cfa: $rsp 48 +
STACK CFI INIT 102e0 e2 .cfa: $rsp .ra: .cfa 8 - ^
STACK CFI 102e0 .cfa: $rsp 320 +
STACK CFI INIT 103d0 73 .cfa: $rsp .ra: .cfa 8 - ^
STACK CFI 103d0 .cfa: $rsp 48 +
STACK CFI INIT 10443 72 .cfa: $rsp .ra: .cfa 8 - ^
STACK CFI 10443 .cfa: $rsp 48 +
STACK CFI INIT 104b5 139 .cfa: $rsp .ra: .cfa 8 - ^
STACK CFI 104b5 .cfa: $rsp 48 +
STACK CFI INIT 10610 6c .cfa: $rsp .ra: .cfa 8 - ^
STACK CFI 10610 .cfa: $rsp 48 +
STACK CFI INIT 10680 42 .cfa: $rsp .ra: .cfa 8 - ^
STACK CFI 10680 .cfa: $rsp 48 +
STACK CFI INIT 106d0 88 .cfa: $rsp .ra: .cfa 8 - ^
STACK CFI 106d0 .cfa: $rsp 48 +
STACK CFI INIT 10760 70 .cfa: $rsp .ra: .cfa 8 - ^
STACK CFI 10760 .cfa: $rsp 48 +
STACK CFI INIT 107d0 f .cfa: $rsp .ra: .cfa 8 - ^
STACK CFI 107d0 .cfa: $rsp 48 +
STACK CFI INIT 107df 6e .cfa: $rsp .ra: .cfa 8 - ^
STACK CFI 107df .cfa: $rsp 48 +
STACK CFI INIT 1084d 1 .cfa: $rsp .ra: .cfa 8 - ^
STACK CFI 1084d .cfa: $rsp 48 +
STACK CFI INIT 1084e 7 .cfa: $rsp .ra: .cfa 8 - ^
STACK CFI 1084e .cfa: $rsp 48 +
STACK CFI INIT 10860 f .cfa: $rsp .ra: .cfa 8 - ^
STACK CFI 10860 .cfa: $rsp 48 +
STACK CFI INIT 1086f 73 .cfa: $rsp .ra: .cfa 8 - ^
STACK CFI 1086f .cfa: $rsp 48 +
STACK CFI INIT 108e2 1 .cfa: $rsp .ra: .cfa 8 - ^
STACK CFI 108e2 .cfa: $rsp 48 +
STACK CFI INIT 108e3 7 .cfa: $rsp .ra: .cfa 8 - ^
STACK CFI 108e3 .cfa: $rsp 48 +
STACK CFI INIT 10910 11f .cfa: $rsp .ra: .cfa 8 - ^
STACK CFI 10910 .cfa: $rsp 80 +
STACK CFI INIT 10a2f 72 .cfa: $rsp .ra: .cfa 8 - ^
STACK CFI 10a2f .cfa: $rsp 80 +
STACK CFI INIT 10aa1 20 .cfa: $rsp .ra: .cfa 8 - ^
STACK CFI 10aa1 .cfa: $rsp 80 +
STACK CFI INIT 10ad0 1ef .cfa: $rsp .ra: .cfa 8 - ^
STACK CFI 10ad0 .cfa: $rsp 80 +
STACK CFI INIT 10cc0 23 .cfa: $rsp .ra: .cfa 8 - ^
STACK CFI 10cc0 .cfa: $rsp 48 +
STACK CFI INIT 10ce3 d5 .cfa: $rsp .ra: .cfa 8 - ^
STACK CFI 10ce3 .cfa: $rsp 48 +
STACK CFI INIT 10db8 10 .cfa: $rsp .ra: .cfa 8 - ^
STACK CFI 10db8 .cfa: $rsp 48 +
STACK CFI INIT 10dc8 7 .cfa: $rsp .ra: .cfa 8 - ^
STACK CFI 10dc8 .cfa: $rsp 48 +
STACK CFI INIT 10dd0 24 .cfa: $rsp .ra: .cfa 8 - ^
STACK CFI 10dd0 .cfa: $rsp 48 +
STACK CFI INIT 10e00 29 .cfa: $rsp .ra: .cfa 8 - ^
STACK CFI 10e00 .cfa: $rsp 64 +
STACK CFI INIT 10e29 135 .cfa: $rsp .ra: .cfa 8 - ^
STACK CFI 10e29 .cfa: $rsp 64 +
STACK CFI INIT 10f5e 6 .cfa: $rsp .ra: .cfa 8 - ^
STACK CFI 10f5e .cfa: $rsp 64 +
STACK CFI INIT 10f64 6 .cfa: $rsp .ra: .cfa 8 - ^
STACK CFI 10f64 .cfa: $rsp 64 +
STACK CFI INIT 10f70 27 .cfa: $rsp .ra: .cfa 8 - ^
STACK CFI 10f70 .cfa: $rsp 80 +
STACK CFI INIT 10f97 a7 .cfa: $rsp .ra: .cfa 8 - ^
STACK CFI 10f97 .cfa: $rsp 80 +
STACK CFI INIT 1103e 10 .cfa: $rsp .ra: .cfa 8 - ^
STACK CFI 1103e .cfa: $rsp 80 +
STACK CFI INIT 11060 97 .cfa: $rsp .ra: .cfa 8 - ^
STACK CFI 11060 .cfa: $rsp 112 +
STACK CFI INIT 11100 5a .cfa: $rsp .ra: .cfa 8 - ^
STACK CFI 11100 .cfa: $rsp 368 +
STACK CFI INIT 1115a 90 .cfa: $rsp .ra: .cfa 8 - ^
STACK CFI 1115a .cfa: $rsp 368 +
STACK CFI INIT 111ea 1c .cfa: $rsp .ra: .cfa 8 - ^
STACK CFI 111ea .cfa: $rsp 368 +
STACK CFI INIT 11210 216 .cfa: $rsp .ra: .cfa 8 - ^
STACK CFI 11210 .cfa: $rsp 416 +
STACK CFI INIT 11430 202 .cfa: $rsp .ra: .cfa 8 - ^
STACK CFI 11430 .cfa: $rsp 416 +
STACK CFI INIT 11640 c0 .cfa: $rsp .ra: .cfa 8 - ^
STACK CFI 11640 .cfa: $rsp 368 +
STACK CFI INIT 11700 11 .cfa: $rsp .ra: .cfa 8 - ^
STACK CFI 11700 .cfa: $rsp 368 +
STACK CFI INIT 11711 d0 .cfa: $rsp .ra: .cfa 8 - ^
STACK CFI 11711 .cfa: $rsp 368 +
STACK CFI INIT 117e1 c .cfa: $rsp .ra: .cfa 8 - ^
STACK CFI 117e1 .cfa: $rsp 368 +
STACK CFI INIT 117ed 53 .cfa: $rsp .ra: .cfa 8 - ^
STACK CFI 117ed .cfa: $rsp 368 +
STACK CFI INIT 11840 d8 .cfa: $rsp .ra: .cfa 8 - ^
STACK CFI 11840 .cfa: $rsp 368 +
STACK CFI INIT 11920 16a .cfa: $rsp .ra: .cfa 8 - ^
STACK CFI 11920 .cfa: $rsp 576 +
STACK CFI INIT 11a90 27 .cfa: $rsp .ra: .cfa 8 - ^
STACK CFI 11a90 .cfa: $rsp 448 +
STACK CFI INIT 11ab7 d1 .cfa: $rsp .ra: .cfa 8 - ^
STACK CFI 11ab7 .cfa: $rsp 448 +
STACK CFI INIT 11b88 10a .cfa: $rsp .ra: .cfa 8 - ^
STACK CFI 11b88 .cfa: $rsp 448 +
STACK CFI INIT 11c92 31 .cfa: $rsp .ra: .cfa 8 - ^
STACK CFI 11c92 .cfa: $rsp 448 +
STACK CFI INIT 11cc3 aa .cfa: $rsp .ra: .cfa 8 - ^
STACK CFI 11cc3 .cfa: $rsp 448 +
STACK CFI INIT 11d70 4c .cfa: $rsp .ra: .cfa 8 - ^
STACK CFI 11d70 .cfa: $rsp 368 +
STACK CFI INIT 11dbc 7f .cfa: $rsp .ra: .cfa 8 - ^
STACK CFI 11dbc .cfa: $rsp 368 +
STACK CFI INIT 11e3b 20 .cfa: $rsp .ra: .cfa 8 - ^
STACK CFI 11e3b .cfa: $rsp 368 +
STACK CFI INIT 11e60 8a .cfa: $rsp .ra: .cfa 8 - ^
STACK CFI 11e60 .cfa: $rsp 224 +
STACK CFI INIT 11eea 31f .cfa: $rsp .ra: .cfa 8 - ^
STACK CFI 11eea .cfa: $rsp 224 +
STACK CFI INIT 12209 6 .cfa: $rsp .ra: .cfa 8 - ^
STACK CFI 12209 .cfa: $rsp 224 +
STACK CFI INIT 1220f 6 .cfa: $rsp .ra: .cfa 8 - ^
STACK CFI 1220f .cfa: $rsp 224 +
STACK CFI INIT 12220 b1 .cfa: $rsp .ra: .cfa 8 - ^
STACK CFI 12220 .cfa: $rsp 96 +
STACK CFI INIT 122d1 3c .cfa: $rsp .ra: .cfa 8 - ^
STACK CFI 122d1 .cfa: $rsp 96 +
STACK CFI INIT 1230d 42 .cfa: $rsp .ra: .cfa 8 - ^
STACK CFI 1230d .cfa: $rsp 96 +
STACK CFI INIT 12350 15 .cfa: $rsp .ra: .cfa 8 - ^
STACK CFI 12350 .cfa: $rsp 48 +
STACK CFI INIT 12365 45 .cfa: $rsp .ra: .cfa 8 - ^
STACK CFI 12365 .cfa: $rsp 48 +
STACK CFI INIT 123aa 3f .cfa: $rsp .ra: .cfa 8 - ^
STACK CFI 123aa .cfa: $rsp 48 +
STACK CFI INIT 123f0 23 .cfa: $rsp .ra: .cfa 8 - ^
STACK CFI 123f0 .cfa: $rsp 48 +
STACK CFI INIT 12413 86 .cfa: $rsp .ra: .cfa 8 - ^
STACK CFI 12413 .cfa: $rsp 48 +
STACK CFI INIT 12499 10 .cfa: $rsp .ra: .cfa 8 - ^
STACK CFI 12499 .cfa: $rsp 48 +
STACK CFI INIT 124a9 7 .cfa: $rsp .ra: .cfa 8 - ^
STACK CFI 124a9 .cfa: $rsp 48 +
STACK CFI INIT 124b0 1e8 .cfa: $rsp .ra: .cfa 8 - ^
STACK CFI 124b0 .cfa: $rsp 352 +
STACK CFI INIT 126a0 6c .cfa: $rsp .ra: .cfa 8 - ^
STACK CFI 126a0 .cfa: $rsp 80 +
STACK CFI INIT 12710 1b8 .cfa: $rsp .ra: .cfa 8 - ^
STACK CFI 12710 .cfa: $rsp 400 +
STACK CFI INIT 128d0 3d .cfa: $rsp .ra: .cfa 8 - ^
STACK CFI 128d0 .cfa: $rsp 320 +
STACK CFI INIT 1290d 8e .cfa: $rsp .ra: .cfa 8 - ^
STACK CFI 1290d .cfa: $rsp 320 +
STACK CFI INIT 1299b 10 .cfa: $rsp .ra: .cfa 8 - ^
STACK CFI 1299b .cfa: $rsp 320 +
STACK CFI INIT 129b0 1b0 .cfa: $rsp .ra: .cfa 8 - ^
STACK CFI 129b0 .cfa: $rsp 320 +
STACK CFI INIT 12b60 172 .cfa: $rsp .ra: .cfa 8 - ^
STACK CFI 12b60 .cfa: $rsp 352 +
STACK CFI INIT 12ce0 2e1 .cfa: $rsp .ra: .cfa 8 - ^
STACK CFI 12ce0 .cfa: $rsp 416 +
STACK CFI INIT 12fd0 17a .cfa: $rsp .ra: .cfa 8 - ^
STACK CFI 12fd0 .cfa: $rsp 352 +
STACK CFI INIT 13150 18e .cfa: $rsp .ra: .cfa 8 - ^
STACK CFI 13150 .cfa: $rsp 352 +
STACK CFI INIT 132e0 1a3 .cfa: $rsp .ra: .cfa 8 - ^
STACK CFI 132e0 .cfa: $rsp 352 +
STACK CFI INIT 13490 28f .cfa: $rsp .ra: .cfa 8 - ^
STACK CFI 13490 .cfa: $rsp 976 +
STACK CFI INIT 13720 34 .cfa: $rsp .ra: .cfa 8 - ^
STACK CFI 13720 .cfa: $rsp 320 +
STACK CFI INIT 13754 94 .cfa: $rsp .ra: .cfa 8 - ^
STACK CFI 13754 .cfa: $rsp 320 +
STACK CFI INIT 137e8 28 .cfa: $rsp .ra: .cfa 8 - ^
STACK CFI 137e8 .cfa: $rsp 320 +
STACK CFI INIT 13810 be .cfa: $rsp .ra: .cfa 8 - ^
STACK CFI 13810 .cfa: $rsp 320 +
STACK CFI INIT 138d0 a4 .cfa: $rsp .ra: .cfa 8 - ^
STACK CFI 138d0 .cfa: $rsp 320 +
STACK CFI INIT 13980 127 .cfa: $rsp .ra: .cfa 8 - ^
STACK CFI 13980 .cfa: $rsp 336 +
STACK CFI INIT 13ab0 ea .cfa: $rsp .ra: .cfa 8 - ^
STACK CFI 13ab0 .cfa: $rsp 336 +
STACK CFI INIT 13ba0 a .cfa: $rsp .ra: .cfa 8 - ^
STACK CFI 13ba0 .cfa: $rsp 576 +
STACK CFI INIT 13baa 1d .cfa: $rsp .ra: .cfa 8 - ^
STACK CFI 13baa .cfa: $rsp 576 +
STACK CFI INIT 13bc7 72 .cfa: $rsp .ra: .cfa 8 - ^
STACK CFI 13bc7 .cfa: $rsp 576 +
STACK CFI INIT 13c39 1f .cfa: $rsp .ra: .cfa 8 - ^
STACK CFI 13c39 .cfa: $rsp 576 +
STACK CFI INIT 13c58 7f .cfa: $rsp .ra: .cfa 8 - ^
STACK CFI 13c58 .cfa: $rsp 576 +
STACK CFI INIT 13cd7 15 .cfa: $rsp .ra: .cfa 8 - ^
STACK CFI 13cd7 .cfa: $rsp 576 +
STACK CFI INIT 13cf0 3f .cfa: $rsp .ra: .cfa 8 - ^
STACK CFI 13cf0 .cfa: $rsp 48 +
STACK CFI INIT 13d30 7c .cfa: $rsp .ra: .cfa 8 - ^
STACK CFI 13d30 .cfa: $rsp 48 +
STACK CFI INIT 13dc0 c1 .cfa: $rsp .ra: .cfa 8 - ^
STACK CFI 13dc0 .cfa: $rsp 304 +
STACK CFI INIT 13ea0 102 .cfa: $rsp .ra: .cfa 8 - ^
STACK CFI 13ea0 .cfa: $rsp 48 +
STACK CFI INIT 13fb0 26a .cfa: $rsp .ra: .cfa 8 - ^
STACK CFI 13fb0 .cfa: $rsp 688 +
STACK CFI INIT 14270 3f .cfa: $rsp .ra: .cfa 8 - ^
STACK CFI 14270 .cfa: $rsp 48 +
STACK CFI INIT 142b0 7c .cfa: $rsp .ra: .cfa 8 - ^
STACK CFI 142b0 .cfa: $rsp 48 +
STACK CFI INIT 14330 29 .cfa: $rsp .ra: .cfa 8 - ^
STACK CFI 14330 .cfa: $rsp 320 +
STACK CFI INIT 14359 86 .cfa: $rsp .ra: .cfa 8 - ^
STACK CFI 14359 .cfa: $rsp 320 +
STACK CFI INIT 143df 8 .cfa: $rsp .ra: .cfa 8 - ^
STACK CFI 143df .cfa: $rsp 320 +
STACK CFI INIT 143f0 102 .cfa: $rsp .ra: .cfa 8 - ^
STACK CFI 143f0 .cfa: $rsp 48 +
STACK CFI INIT 14500 ec .cfa: $rsp .ra: .cfa 8 - ^
STACK CFI 14500 .cfa: $rsp 304 +
STACK CFI INIT 14600 52 .cfa: $rsp .ra: .cfa 8 - ^
STACK CFI 14600 .cfa: $rsp 80 +
STACK CFI INIT 14660 150 .cfa: $rsp .ra: .cfa 8 - ^
STACK CFI 14660 .cfa: $rsp 192 +
STACK CFI INIT 147b0 159 .cfa: $rsp .ra: .cfa 8 - ^
STACK CFI 147b0 .cfa: $rsp 192 +
STACK CFI INIT 14910 87 .cfa: $rsp .ra: .cfa 8 - ^
STACK CFI 14910 .cfa: $rsp 416 +
STACK CFI INIT 14997 19c .cfa: $rsp .ra: .cfa 8 - ^
STACK CFI 14997 .cfa: $rsp 416 +
STACK CFI INIT 14b33 20 .cfa: $rsp .ra: .cfa 8 - ^
STACK CFI 14b33 .cfa: $rsp 416 +
STACK CFI INIT 14b60 f9 .cfa: $rsp .ra: .cfa 8 - ^
STACK CFI 14b60 .cfa: $rsp 448 +
STACK CFI INIT 14c59 27 .cfa: $rsp .ra: .cfa 8 - ^
STACK CFI 14c59 .cfa: $rsp 448 +
STACK CFI INIT 14c80 7d .cfa: $rsp .ra: .cfa 8 - ^
STACK CFI 14c80 .cfa: $rsp 448 +
STACK CFI INIT 14cfd 1b .cfa: $rsp .ra: .cfa 8 - ^
STACK CFI 14cfd .cfa: $rsp 448 +
STACK CFI INIT 14d18 a .cfa: $rsp .ra: .cfa 8 - ^
STACK CFI 14d18 .cfa: $rsp 448 +
STACK CFI INIT 14d22 5d .cfa: $rsp .ra: .cfa 8 - ^
STACK CFI 14d22 .cfa: $rsp 448 +
STACK CFI INIT 14d7f 123 .cfa: $rsp .ra: .cfa 8 - ^
STACK CFI 14d7f .cfa: $rsp 448 +
STACK CFI INIT 14ea2 26 .cfa: $rsp .ra: .cfa 8 - ^
STACK CFI 14ea2 .cfa: $rsp 448 +
STACK CFI INIT 14ec8 6 .cfa: $rsp .ra: .cfa 8 - ^
STACK CFI 14ec8 .cfa: $rsp 448 +
STACK CFI INIT 14ed0 ef .cfa: $rsp .ra: .cfa 8 - ^
STACK CFI 14ed0 .cfa: $rsp 480 +
STACK CFI INIT 14fbf 15e .cfa: $rsp .ra: .cfa 8 - ^
STACK CFI 14fbf .cfa: $rsp 480 +
STACK CFI INIT 1511d 28 .cfa: $rsp .ra: .cfa 8 - ^
STACK CFI 1511d .cfa: $rsp 480 +
STACK CFI INIT 15150 2fd .cfa: $rsp .ra: .cfa 8 - ^
STACK CFI 15150 .cfa: $rsp 384 +
STACK CFI INIT 15450 165 .cfa: $rsp .ra: .cfa 8 - ^
STACK CFI 15450 .cfa: $rsp 384 +
STACK CFI INIT 155b5 47c .cfa: $rsp .ra: .cfa 8 - ^
STACK CFI 155b5 .cfa: $rsp 384 +
STACK CFI INIT 15a31 34 .cfa: $rsp .ra: .cfa 8 - ^
STACK CFI 15a31 .cfa: $rsp 384 +
STACK CFI INIT 15a65 6 .cfa: $rsp .ra: .cfa 8 - ^
STACK CFI 15a65 .cfa: $rsp 384 +
STACK CFI INIT 15a70 9d .cfa: $rsp .ra: .cfa 8 - ^
STACK CFI 15a70 .cfa: $rsp 48 +
STACK CFI INIT 15c30 f9 .cfa: $rsp .ra: .cfa 8 - ^
STACK CFI 15c30 .cfa: $rsp 336 +
STACK CFI INIT 15d30 18 .cfa: $rsp .ra: .cfa 8 - ^
STACK CFI 15d30 .cfa: $rsp 336 +
STACK CFI INIT 15d48 f1 .cfa: $rsp .ra: .cfa 8 - ^
STACK CFI 15d48 .cfa: $rsp 336 +
STACK CFI INIT 15e39 1 .cfa: $rsp .ra: .cfa 8 - ^
STACK CFI 15e39 .cfa: $rsp 336 +
STACK CFI INIT 15e40 51 .cfa: $rsp .ra: .cfa 8 - ^
STACK CFI 15e40 .cfa: $rsp 48 +
STACK CFI INIT 15ea0 28 .cfa: $rsp .ra: .cfa 8 - ^
STACK CFI 15ea0 .cfa: $rsp 48 +
STACK CFI INIT 15ed0 76 .cfa: $rsp .ra: .cfa 8 - ^
STACK CFI 15ed0 .cfa: $rsp 48 +
STACK CFI INIT 15f50 3a .cfa: $rsp .ra: .cfa 8 - ^
STACK CFI 15f50 .cfa: $rsp 64 +
STACK CFI INIT 15f90 3b .cfa: $rsp .ra: .cfa 8 - ^
STACK CFI 15f90 .cfa: $rsp 48 +
STACK CFI INIT 15fd0 120 .cfa: $rsp .ra: .cfa 8 - ^
STACK CFI 15fd0 .cfa: $rsp 176 +
STACK CFI INIT 16100 6b .cfa: $rsp .ra: .cfa 8 - ^
STACK CFI 16100 .cfa: $rsp 80 +
STACK CFI INIT 16180 42 .cfa: $rsp .ra: .cfa 8 - ^
STACK CFI 16180 .cfa: $rsp 64 +
STACK CFI INIT 161d0 510 .cfa: $rsp .ra: .cfa 8 - ^
STACK CFI 161d0 .cfa: $rsp 448 +
STACK CFI INIT 166f0 51 .cfa: $rsp .ra: .cfa 8 - ^
STACK CFI 166f0 .cfa: $rsp 64 +
STACK CFI INIT 16750 174 .cfa: $rsp .ra: .cfa 8 - ^
STACK CFI 16750 .cfa: $rsp 128 +
STACK CFI INIT 168d0 5a .cfa: $rsp .ra: .cfa 8 - ^
STACK CFI 168d0 .cfa: $rsp 64 +
STACK CFI INIT 16930 2d .cfa: $rsp .ra: .cfa 8 - ^
STACK CFI 16930 .cfa: $rsp 48 +
STACK CFI INIT 16970 6d .cfa: $rsp .ra: .cfa 8 - ^
STACK CFI 16970 .cfa: $rsp 64 +
STACK CFI INIT 169f0 53 .cfa: $rsp .ra: .cfa 8 - ^
STACK CFI 169f0 .cfa: $rsp 48 +
STACK CFI INIT 16a50 2df .cfa: $rsp .ra: .cfa 8 - ^
STACK CFI 16a50 .cfa: $rsp 304 +
STACK CFI INIT 16d40 42 .cfa: $rsp .ra: .cfa 8 - ^
STACK CFI 16d40 .cfa: $rsp 48 +
STACK CFI INIT 16d90 30 .cfa: $rsp .ra: .cfa 8 - ^
STACK CFI 16d90 .cfa: $rsp 48 +
STACK CFI INIT 16df0 36 .cfa: $rsp .ra: .cfa 8 - ^
STACK CFI 16df0 .cfa: $rsp 48 +
STACK CFI INIT 16e30 36 .cfa: $rsp .ra: .cfa 8 - ^
STACK CFI 16e30 .cfa: $rsp 48 +
STACK CFI INIT 16e70 36 .cfa: $rsp .ra: .cfa 8 - ^
STACK CFI 16e70 .cfa: $rsp 48 +
STACK CFI INIT 16eb0 36 .cfa: $rsp .ra: .cfa 8 - ^
STACK CFI 16eb0 .cfa: $rsp 48 +
STACK CFI INIT 16ef0 2df .cfa: $rsp .ra: .cfa 8 - ^
STACK CFI 16ef0 .cfa: $rsp 304 +
STACK CFI INIT 171e0 b2 .cfa: $rsp .ra: .cfa 8 - ^
STACK CFI 171e0 .cfa: $rsp 128 +
STACK CFI INIT 172a0 8f .cfa: $rsp .ra: .cfa 8 - ^
STACK CFI 172a0 .cfa: $rsp 64 +
STACK CFI INIT 17330 2e .cfa: $rsp .ra: .cfa 8 - ^
STACK CFI 17330 .cfa: $rsp 48 +
STACK CFI INIT 17360 2e .cfa: $rsp .ra: .cfa 8 - ^
STACK CFI 17360 .cfa: $rsp 48 +
STACK CFI INIT 17390 42 .cfa: $rsp .ra: .cfa 8 - ^
STACK CFI 17390 .cfa: $rsp 48 +
STACK CFI INIT 173e0 3d .cfa: $rsp .ra: .cfa 8 - ^
STACK CFI 173e0 .cfa: $rsp 48 +
STACK CFI INIT 17420 3b .cfa: $rsp .ra: .cfa 8 - ^
STACK CFI 17420 .cfa: $rsp 64 +
STACK CFI INIT 17480 a9 .cfa: $rsp .ra: .cfa 8 - ^
STACK CFI 17480 .cfa: $rsp 96 +
STACK CFI INIT 17530 215 .cfa: $rsp .ra: .cfa 8 - ^
STACK CFI 17530 .cfa: $rsp 144 +
STACK CFI INIT 17750 a1 .cfa: $rsp .ra: .cfa 8 - ^
STACK CFI 17750 .cfa: $rsp 112 +
STACK CFI INIT 17800 c3 .cfa: $rsp .ra: .cfa 8 - ^
STACK CFI 17800 .cfa: $rsp 208 +
STACK CFI INIT 178d0 bd .cfa: $rsp .ra: .cfa 8 - ^
STACK CFI 178d0 .cfa: $rsp 144 +
STACK CFI INIT 17990 33 .cfa: $rsp .ra: .cfa 8 - ^
STACK CFI 17990 .cfa: $rsp 64 +
STACK CFI INIT 179d0 7b .cfa: $rsp .ra: .cfa 8 - ^
STACK CFI 179d0 .cfa: $rsp 80 +
STACK CFI INIT 17a50 26 .cfa: $rsp .ra: .cfa 8 - ^
STACK CFI 17a50 .cfa: $rsp 48 +
STACK CFI INIT 17a80 26 .cfa: $rsp .ra: .cfa 8 - ^
STACK CFI 17a80 .cfa: $rsp 48 +
STACK CFI INIT 17ab0 1a .cfa: $rsp .ra: .cfa 8 - ^
STACK CFI 17ab0 .cfa: $rsp 48 +
STACK CFI INIT 17ad0 4a .cfa: $rsp .ra: .cfa 8 - ^
STACK CFI 17ad0 .cfa: $rsp 64 +
STACK CFI INIT 17b20 5a .cfa: $rsp .ra: .cfa 8 - ^
STACK CFI 17b20 .cfa: $rsp 80 +
STACK CFI INIT 17b80 57 .cfa: $rsp .ra: .cfa 8 - ^
STACK CFI 17b80 .cfa: $rsp 80 +
STACK CFI INIT 17c40 3e .cfa: $rsp .ra: .cfa 8 - ^
STACK CFI 17c40 .cfa: $rsp 64 +
STACK CFI INIT 17c80 22 .cfa: $rsp .ra: .cfa 8 - ^
STACK CFI 17c80 .cfa: $rsp 64 +
STACK CFI INIT 17cb0 39 .cfa: $rsp .ra: .cfa 8 - ^
STACK CFI 17cb0 .cfa: $rsp 64 +
STACK CFI INIT 17cf0 1d .cfa: $rsp .ra: .cfa 8 - ^
STACK CFI 17cf0 .cfa: $rsp 48 +
STACK CFI INIT 17d10 31 .cfa: $rsp .ra: .cfa 8 - ^
STACK CFI 17d10 .cfa: $rsp 24 +
STACK CFI INIT 17d50 3c .cfa: $rsp .ra: .cfa 8 - ^
STACK CFI 17d50 .cfa: $rsp 48 +
STACK CFI INIT 17d90 36 .cfa: $rsp .ra: .cfa 8 - ^
STACK CFI 17d90 .cfa: $rsp 48 +
STACK CFI INIT 17dd0 36 .cfa: $rsp .ra: .cfa 8 - ^
STACK CFI 17dd0 .cfa: $rsp 48 +
STACK CFI INIT 17e10 33 .cfa: $rsp .ra: .cfa 8 - ^
STACK CFI 17e10 .cfa: $rsp 48 +
STACK CFI INIT 17e50 5f .cfa: $rsp .ra: .cfa 8 - ^
STACK CFI 17e50 .cfa: $rsp 48 +
STACK CFI INIT 17eb0 58 .cfa: $rsp .ra: .cfa 8 - ^
STACK CFI 17eb0 .cfa: $rsp 48 +
STACK CFI INIT 17f10 49 .cfa: $rsp .ra: .cfa 8 - ^
STACK CFI 17f10 .cfa: $rsp 16 +
STACK CFI INIT 17f60 38 .cfa: $rsp .ra: .cfa 8 - ^
STACK CFI 17f60 .cfa: $rsp 48 +
STACK CFI INIT 17fa0 26 .cfa: $rsp .ra: .cfa 8 - ^
STACK CFI 17fa0 .cfa: $rsp 64 +
STACK CFI INIT 17fd0 18 .cfa: $rsp .ra: .cfa 8 - ^
STACK CFI 17fd0 .cfa: $rsp 48 +
STACK CFI INIT 17ff0 18 .cfa: $rsp .ra: .cfa 8 - ^
STACK CFI 17ff0 .cfa: $rsp 48 +
STACK CFI INIT 18010 18 .cfa: $rsp .ra: .cfa 8 - ^
STACK CFI 18010 .cfa: $rsp 48 +
STACK CFI INIT 18030 56 .cfa: $rsp .ra: .cfa 8 - ^
STACK CFI 18030 .cfa: $rsp 48 +
STACK CFI INIT 18090 2e .cfa: $rsp .ra: .cfa 8 - ^
STACK CFI 18090 .cfa: $rsp 48 +
STACK CFI INIT 180c0 27 .cfa: $rsp .ra: .cfa 8 - ^
STACK CFI 180c0 .cfa: $rsp 48 +
STACK CFI INIT 180f0 27 .cfa: $rsp .ra: .cfa 8 - ^
STACK CFI 180f0 .cfa: $rsp 32 +
STACK CFI INIT 18130 25 .cfa: $rsp .ra: .cfa 8 - ^
STACK CFI 18130 .cfa: $rsp 48 +
STACK CFI INIT 18160 6c .cfa: $rsp .ra: .cfa 8 - ^
STACK CFI 18160 .cfa: $rsp 64 +
STACK CFI INIT 181d0 9d .cfa: $rsp .ra: .cfa 8 - ^
STACK CFI 181d0 .cfa: $rsp 96 +
STACK CFI INIT 18270 3c .cfa: $rsp .ra: .cfa 8 - ^
STACK CFI 18270 .cfa: $rsp 48 +
STACK CFI INIT 182b0 3b .cfa: $rsp .ra: .cfa 8 - ^
STACK CFI 182b0 .cfa: $rsp 48 +
STACK CFI INIT 182f0 3b .cfa: $rsp .ra: .cfa 8 - ^
STACK CFI 182f0 .cfa: $rsp 48 +
STACK CFI INIT 18330 3b .cfa: $rsp .ra: .cfa 8 - ^
STACK CFI 18330 .cfa: $rsp 48 +
STACK CFI INIT 18370 3b .cfa: $rsp .ra: .cfa 8 - ^
STACK CFI 18370 .cfa: $rsp 48 +
STACK CFI INIT 183b0 3b .cfa: $rsp .ra: .cfa 8 - ^
STACK CFI 183b0 .cfa: $rsp 48 +
STACK CFI INIT 183f0 3b .cfa: $rsp .ra: .cfa 8 - ^
STACK CFI 183f0 .cfa: $rsp 48 +
STACK CFI INIT 18430 61 .cfa: $rsp .ra: .cfa 8 - ^
STACK CFI 18430 .cfa: $rsp 80 +
STACK CFI INIT 184a0 14 .cfa: $rsp .ra: .cfa 8 - ^
STACK CFI 184a0 .cfa: $rsp 32 +
STACK CFI INIT 184c0 41 .cfa: $rsp .ra: .cfa 8 - ^
STACK CFI 184c0 .cfa: $rsp 48 +
STACK CFI INIT 18510 d0 .cfa: $rsp .ra: .cfa 8 - ^
STACK CFI 18510 .cfa: $rsp 96 +
STACK CFI INIT 185e0 3f .cfa: $rsp .ra: .cfa 8 - ^
STACK CFI 185e0 .cfa: $rsp 64 +
STACK CFI INIT 18620 98 .cfa: $rsp .ra: .cfa 8 - ^
STACK CFI 18620 .cfa: $rsp 80 +
STACK CFI INIT 186c0 41 .cfa: $rsp .ra: .cfa 8 - ^
STACK CFI 186c0 .cfa: $rsp 48 +
STACK CFI INIT 18710 54 .cfa: $rsp .ra: .cfa 8 - ^
STACK CFI 18710 .cfa: $rsp 48 +
STACK CFI INIT 18770 1b .cfa: $rsp .ra: .cfa 8 - ^
STACK CFI 18770 .cfa: $rsp 48 +
STACK CFI INIT 18790 42 .cfa: $rsp .ra: .cfa 8 - ^
STACK CFI 18790 .cfa: $rsp 64 +
STACK CFI INIT 187e0 183 .cfa: $rsp .ra: .cfa 8 - ^
STACK CFI 187e0 .cfa: $rsp 144 +
STACK CFI INIT 18970 48 .cfa: $rsp .ra: .cfa 8 - ^
STACK CFI 18970 .cfa: $rsp 64 +
STACK CFI INIT 189c0 23 .cfa: $rsp .ra: .cfa 8 - ^
STACK CFI 189c0 .cfa: $rsp 48 +
STACK CFI INIT 189f0 23 .cfa: $rsp .ra: .cfa 8 - ^
STACK CFI 189f0 .cfa: $rsp 48 +
STACK CFI INIT 18a20 55 .cfa: $rsp .ra: .cfa 8 - ^
STACK CFI 18a20 .cfa: $rsp 80 +
STACK CFI INIT 18a80 28 .cfa: $rsp .ra: .cfa 8 - ^
STACK CFI 18a80 .cfa: $rsp 48 +
STACK CFI INIT 18ab0 44 .cfa: $rsp .ra: .cfa 8 - ^
STACK CFI 18ab0 .cfa: $rsp 64 +
STACK CFI INIT 18b00 3c .cfa: $rsp .ra: .cfa 8 - ^
STACK CFI 18b00 .cfa: $rsp 64 +
STACK CFI INIT 18b40 1b .cfa: $rsp .ra: .cfa 8 - ^
STACK CFI 18b40 .cfa: $rsp 48 +
STACK CFI INIT 18b60 a6 .cfa: $rsp .ra: .cfa 8 - ^
STACK CFI 18b60 .cfa: $rsp 80 +
STACK CFI INIT 18c10 197 .cfa: $rsp .ra: .cfa 8 - ^
STACK CFI 18c10 .cfa: $rsp 144 +
STACK CFI INIT 18db0 9f .cfa: $rsp .ra: .cfa 8 - ^
STACK CFI 18db0 .cfa: $rsp 64 +
STACK CFI INIT 18e50 62 .cfa: $rsp .ra: .cfa 8 - ^
STACK CFI 18e50 .cfa: $rsp 64 +
STACK CFI INIT 18ec0 2a .cfa: $rsp .ra: .cfa 8 - ^
STACK CFI 18ec0 .cfa: $rsp 48 +
STACK CFI INIT 18ef0 4c .cfa: $rsp .ra: .cfa 8 - ^
STACK CFI 18ef0 .cfa: $rsp 96 +
STACK CFI INIT 18f40 48 .cfa: $rsp .ra: .cfa 8 - ^
STACK CFI 18f40 .cfa: $rsp 64 +
STACK CFI INIT 18f90 30 .cfa: $rsp .ra: .cfa 8 - ^
STACK CFI 18f90 .cfa: $rsp 48 +
STACK CFI INIT 18fc0 30 .cfa: $rsp .ra: .cfa 8 - ^
STACK CFI 18fc0 .cfa: $rsp 48 +
STACK CFI INIT 18ff0 38 .cfa: $rsp .ra: .cfa 8 - ^
STACK CFI 18ff0 .cfa: $rsp 32 +
STACK CFI INIT 19030 34a .cfa: $rsp .ra: .cfa 8 - ^
STACK CFI 19030 .cfa: $rsp 256 +
STACK CFI INIT 19380 55 .cfa: $rsp .ra: .cfa 8 - ^
STACK CFI 19380 .cfa: $rsp 64 +
STACK CFI INIT 193e0 13 .cfa: $rsp .ra: .cfa 8 - ^
STACK CFI 193e0 .cfa: $rsp 48 +
STACK CFI INIT 19400 c4 .cfa: $rsp .ra: .cfa 8 - ^
STACK CFI 19400 .cfa: $rsp 128 +
STACK CFI INIT 194e0 263 .cfa: $rsp .ra: .cfa 8 - ^
STACK CFI 194e0 .cfa: $rsp 240 +
STACK CFI INIT 19750 1b .cfa: $rsp .ra: .cfa 8 - ^
STACK CFI 19750 .cfa: $rsp 32 +
STACK CFI INIT 19780 8f .cfa: $rsp .ra: .cfa 8 - ^
STACK CFI 19780 .cfa: $rsp 64 +
STACK CFI INIT 19830 72 .cfa: $rsp .ra: .cfa 8 - ^
STACK CFI 19830 .cfa: $rsp 64 +
STACK CFI INIT 19910 3c .cfa: $rsp .ra: .cfa 8 - ^
STACK CFI 19910 .cfa: $rsp 48 +
STACK CFI INIT 19950 3c .cfa: $rsp .ra: .cfa 8 - ^
STACK CFI 19950 .cfa: $rsp 48 +
STACK CFI INIT 19990 3c .cfa: $rsp .ra: .cfa 8 - ^
STACK CFI 19990 .cfa: $rsp 48 +
STACK CFI INIT 199d0 3c .cfa: $rsp .ra: .cfa 8 - ^
STACK CFI 199d0 .cfa: $rsp 48 +
STACK CFI INIT 19a10 3c .cfa: $rsp .ra: .cfa 8 - ^
STACK CFI 19a10 .cfa: $rsp 48 +
STACK CFI INIT 19a50 3c .cfa: $rsp .ra: .cfa 8 - ^
STACK CFI 19a50 .cfa: $rsp 48 +
STACK CFI INIT 19a90 3c .cfa: $rsp .ra: .cfa 8 - ^
STACK CFI 19a90 .cfa: $rsp 48 +
STACK CFI INIT 19ad0 3b .cfa: $rsp .ra: .cfa 8 - ^
STACK CFI 19ad0 .cfa: $rsp 48 +
STACK CFI INIT 19b10 76 .cfa: $rsp .ra: .cfa 8 - ^
STACK CFI 19b10 .cfa: $rsp 64 +
STACK CFI INIT 19b90 2b1 .cfa: $rsp .ra: .cfa 8 - ^
STACK CFI 19b90 .cfa: $rsp 240 +
STACK CFI INIT 19e50 c97 .cfa: $rsp .ra: .cfa 8 - ^
STACK CFI 19e50 .cfa: $rsp 672 +
STACK CFI INIT 1aaf0 58 .cfa: $rsp .ra: .cfa 8 - ^
STACK CFI 1aaf0 .cfa: $rsp 64 +
STACK CFI INIT 1ab50 4b .cfa: $rsp .ra: .cfa 8 - ^
STACK CFI 1ab50 .cfa: $rsp 48 +
STACK CFI INIT 1abb0 ac .cfa: $rsp .ra: .cfa 8 - ^
STACK CFI 1abb0 .cfa: $rsp 48 +
STACK CFI INIT 1ac70 48 .cfa: $rsp .ra: .cfa 8 - ^
STACK CFI 1ac70 .cfa: $rsp 64 +
STACK CFI INIT 1acc0 25 .cfa: $rsp .ra: .cfa 8 - ^
STACK CFI 1acc0 .cfa: $rsp 48 +
STACK CFI INIT 1ad00 58 .cfa: $rsp .ra: .cfa 8 - ^
STACK CFI 1ad00 .cfa: $rsp 64 +
STACK CFI INIT 1ad60 4b .cfa: $rsp .ra: .cfa 8 - ^
STACK CFI 1ad60 .cfa: $rsp 48 +
STACK CFI INIT 1adc0 ae .cfa: $rsp .ra: .cfa 8 - ^
STACK CFI 1adc0 .cfa: $rsp 48 +
STACK CFI INIT 1ae80 6e .cfa: $rsp .ra: .cfa 8 - ^
STACK CFI 1ae80 .cfa: $rsp 64 +
STACK CFI INIT 1aef0 25 .cfa: $rsp .ra: .cfa 8 - ^
STACK CFI 1aef0 .cfa: $rsp 48 +
STACK CFI INIT 1af30 13f .cfa: $rsp .ra: .cfa 8 - ^
STACK CFI 1af30 .cfa: $rsp 24 +
STACK CFI INIT 1b51c 2b .cfa: $rsp .ra: .cfa 8 - ^
STACK CFI 1b51c .cfa: $rsp 48 +
STACK CFI INIT 1b548 3c .cfa: $rsp .ra: .cfa 8 - ^
STACK CFI 1b548 .cfa: $rsp 48 +
STACK CFI INIT 1b584 39 .cfa: $rsp .ra: .cfa 8 - ^
STACK CFI 1b584 .cfa: $rsp 48 +
STACK CFI INIT 1b5c0 49 .cfa: $rsp .ra: .cfa 8 - ^
STACK CFI 1b5c0 .cfa: $rsp 48 +
STACK CFI INIT 1b60c 8b .cfa: $rsp .ra: .cfa 8 - ^
STACK CFI 1b60c .cfa: $rsp 48 +
STACK CFI INIT 1b698 98 .cfa: $rsp .ra: .cfa 8 - ^
STACK CFI 1b698 .cfa: $rsp 32 +
STACK CFI INIT 1b730 24 .cfa: $rsp .ra: .cfa 8 - ^
STACK CFI 1b730 .cfa: $rsp 48 +
STACK CFI INIT 1b754 29 .cfa: $rsp .ra: .cfa 8 - ^
STACK CFI 1b754 .cfa: $rsp 48 +
STACK CFI INIT 1b780 3a .cfa: $rsp .ra: .cfa 8 - ^
STACK CFI 1b780 .cfa: $rsp 48 +
STACK CFI INIT 1b7bc 17 .cfa: $rsp .ra: .cfa 8 - ^
STACK CFI 1b7bc .cfa: $rsp 48 +
STACK CFI INIT 1b7d4 1d .cfa: $rsp .ra: .cfa 8 - ^
STACK CFI 1b7d4 .cfa: $rsp 48 +
STACK CFI INIT 1b7f4 5b .cfa: $rsp .ra: .cfa 8 - ^
STACK CFI 1b7f4 .cfa: $rsp 16 +
STACK CFI INIT 1b850 7f .cfa: $rsp .ra: .cfa 8 - ^
STACK CFI 1b850 .cfa: $rsp 48 +
STACK CFI INIT 1b8e0 1e .cfa: $rsp .ra: .cfa 8 - ^
STACK CFI 1b8e0 .cfa: $rsp 8 +
STACK CFI INIT 1b900 b6 .cfa: $rsp .ra: .cfa 8 - ^
STACK CFI 1b900 .cfa: $rsp 48 +
STACK CFI INIT 1b9b8 10 .cfa: $rsp .ra: .cfa 8 - ^
STACK CFI 1b9b8 .cfa: $rsp 48 +
STACK CFI INIT 1b9c8 19 .cfa: $rsp .ra: .cfa 8 - ^
STACK CFI 1b9c8 .cfa: $rsp 48 +
STACK CFI INIT 1b9e4 171 .cfa: $rsp .ra: .cfa 8 - ^
STACK CFI 1b9e4 .cfa: $rsp 64 +
STACK CFI INIT 1bb58 12 .cfa: $rsp .ra: .cfa 8 - ^
STACK CFI 1bb58 .cfa: $rsp 48 +
STACK CFI INIT 1bb6c 34 .cfa: $rsp .ra: .cfa 8 - ^
STACK CFI 1bb6c .cfa: $rsp 48 +
STACK CFI INIT 1bba0 d2 .cfa: $rsp .ra: .cfa 8 - ^
STACK CFI 1bba0 .cfa: $rsp 64 +
STACK CFI INIT 1bc74 13 .cfa: $rsp .ra: .cfa 8 - ^
STACK CFI 1bc74 .cfa: $rsp 48 +
STACK CFI INIT 1bc88 9c .cfa: $rsp .ra: .cfa 8 - ^
STACK CFI 1bc88 .cfa: $rsp 48 +
STACK CFI INIT 1bd24 6d .cfa: $rsp .ra: .cfa 8 - ^
STACK CFI 1bd24 .cfa: $rsp 80 +
STACK CFI INIT 1bd94 71 .cfa: $rsp .ra: .cfa 8 - ^
STACK CFI 1bd94 .cfa: $rsp 96 +
STACK CFI INIT 1be08 d0 .cfa: $rsp .ra: .cfa 8 - ^
STACK CFI 1be08 .cfa: $rsp 48 +
STACK CFI INIT 1bed8 28 .cfa: $rsp .ra: .cfa 8 - ^
STACK CFI 1bed8 .cfa: $rsp 48 +
STACK CFI INIT 1bf00 60 .cfa: $rsp .ra: .cfa 8 - ^
STACK CFI 1bf00 .cfa: $rsp 48 +
STACK CFI INIT 1bf60 67 .cfa: $rsp .ra: .cfa 8 - ^
STACK CFI 1bf60 .cfa: $rsp 48 +
STACK CFI INIT 1bfc8 41 .cfa: $rsp .ra: .cfa 8 - ^
STACK CFI 1bfc8 .cfa: $rsp 48 +
STACK CFI INIT 1c00c 63 .cfa: $rsp .ra: .cfa 8 - ^
STACK CFI 1c00c .cfa: $rsp 48 +
STACK CFI INIT 1c0a0 20 .cfa: $rsp .ra: .cfa 8 - ^
STACK CFI 1c0a0 .cfa: $rsp 80 +
STACK CFI INIT 1c0c0 20 .cfa: $rsp .ra: .cfa 8 - ^
STACK CFI 1c0c0 .cfa: $rsp 80 +
STACK CFI INIT 1c0e0 1a1 .cfa: $rsp .ra: .cfa 8 - ^
STACK CFI 1c0e0 .cfa: $rsp 32 +
STACK CFI INIT 1c2a0 14b .cfa: $rsp .ra: .cfa 8 - ^
STACK CFI 1c2a0 .cfa: $rsp 1488 +
STACK CFI INIT 1c3ec 3a .cfa: $rsp .ra: .cfa 8 - ^
STACK CFI 1c3ec .cfa: $rsp 160 +
STACK CFI INIT 1c430 52 .cfa: $rsp .ra: .cfa 8 - ^
STACK CFI 1c430 .cfa: $rsp 48 +
STACK CFI INIT 1c494 5b .cfa: $rsp .ra: .cfa 8 - ^
STACK CFI 1c494 .cfa: $rsp 48 +
STACK CFI INIT 1c4f0 ac .cfa: $rsp .ra: .cfa 8 - ^
STACK CFI 1c4f0 .cfa: $rsp 48 +
STACK CFI INIT 1c5b8 1b .cfa: $rsp .ra: .cfa 8 - ^
STACK CFI 1c5b8 .cfa: $rsp 48 +
STACK CFI INIT 1c5f0 3c .cfa: $rsp .ra: .cfa 8 - ^
STACK CFI 1c5f0 .cfa: $rsp 48 +
STACK CFI INIT 1c62c 3c .cfa: $rsp .ra: .cfa 8 - ^
STACK CFI 1c62c .cfa: $rsp 48 +
STACK CFI INIT 1c750 82 .cfa: $rsp .ra: .cfa 8 - ^
STACK CFI 1c750 .cfa: $rsp 144 +
STACK CFI INIT 1c7d2 ba .cfa: $rsp .ra: .cfa 8 - ^
STACK CFI 1c7d2 .cfa: $rsp 144 +
STACK CFI INIT 1c88c 5f .cfa: $rsp .ra: .cfa 8 - ^
STACK CFI 1c88c .cfa: $rsp 144 +
STACK CFI INIT 1c900 4e .cfa: $rsp .ra: .cfa 8 - ^
STACK CFI 1c900 .cfa: $rsp 24 +
STACK CFI INIT 1c970 2 .cfa: $rsp .ra: .cfa 8 - ^
STACK CFI 1c970 .cfa: $rsp 8 +
STACK CFI INIT 1c990 6 .cfa: $rsp .ra: .cfa 8 - ^
STACK CFI 1c990 .cfa: $rsp 8 +
STACK CFI INIT 1c9a0 19 .cfa: $rsp .ra: .cfa 8 - ^
STACK CFI 1c9a0 .cfa: $rsp 48 +
STACK CFI INIT 1c9c0 1c .cfa: $rsp .ra: .cfa 8 - ^
STACK CFI 1c9c0 .cfa: $rsp 48 +
STACK CFI INIT 1c9dc 1c .cfa: $rsp .ra: .cfa 8 - ^
STACK CFI 1c9dc .cfa: $rsp 48 +
STACK CFI INIT 1c9f8 1c .cfa: $rsp .ra: .cfa 8 - ^
STACK CFI 1c9f8 .cfa: $rsp 48 +
STACK CFI INIT 1ca14 19 .cfa: $rsp .ra: .cfa 8 - ^
STACK CFI 1ca14 .cfa: $rsp 48 +
STACK CFI INIT 1ca2d 1d .cfa: $rsp .ra: .cfa 8 - ^
STACK CFI 1ca2d .cfa: $rsp 48 +
STACK CFI INIT 1ca4a 18 .cfa: $rsp .ra: .cfa 8 - ^
STACK CFI 1ca4a .cfa: $rsp 48 +
STACK CFI INIT 1ca62 1b .cfa: $rsp .ra: .cfa 8 - ^
STACK CFI 1ca62 .cfa: $rsp 48 +
STACK CFI INIT 1ca7d 1b .cfa: $rsp .ra: .cfa 8 - ^
STACK CFI 1ca7d .cfa: $rsp 48 +
STACK CFI INIT 1ca98 1b .cfa: $rsp .ra: .cfa 8 - ^
STACK CFI 1ca98 .cfa: $rsp 48 +
STACK CFI INIT 1cab3 1b .cfa: $rsp .ra: .cfa 8 - ^
STACK CFI 1cab3 .cfa: $rsp 48 +
STACK CFI INIT 1cace 1b .cfa: $rsp .ra: .cfa 8 - ^
STACK CFI 1cace .cfa: $rsp 48 +
STACK CFI INIT 1cae9 1b .cfa: $rsp .ra: .cfa 8 - ^
STACK CFI 1cae9 .cfa: $rsp 48 +
STACK CFI INIT 1cb04 18 .cfa: $rsp .ra: .cfa 8 - ^
STACK CFI 1cb04 .cfa: $rsp 48 +
STACK CFI INIT 1cb1c 1b .cfa: $rsp .ra: .cfa 8 - ^
STACK CFI 1cb1c .cfa: $rsp 48 +
STACK CFI INIT 1cb37 1b .cfa: $rsp .ra: .cfa 8 - ^
STACK CFI 1cb37 .cfa: $rsp 48 +
STACK CFI INIT 1cb52 1b .cfa: $rsp .ra: .cfa 8 - ^
STACK CFI 1cb52 .cfa: $rsp 48 +
STACK CFI INIT 1cb6d 19 .cfa: $rsp .ra: .cfa 8 - ^
STACK CFI 1cb6d .cfa: $rsp 48 +
STACK CFI INIT 1cb86 19 .cfa: $rsp .ra: .cfa 8 - ^
STACK CFI 1cb86 .cfa: $rsp 48 +
STACK CFI INIT 1cb9f 18 .cfa: $rsp .ra: .cfa 8 - ^
STACK CFI 1cb9f .cfa: $rsp 48 +
STACK CFI INIT 1cbb7 19 .cfa: $rsp .ra: .cfa 8 - ^
STACK CFI 1cbb7 .cfa: $rsp 48 +
STACK CFI INIT 1cbd0 19 .cfa: $rsp .ra: .cfa 8 - ^
STACK CFI 1cbd0 .cfa: $rsp 48 +
STACK CFI INIT 1cbe9 19 .cfa: $rsp .ra: .cfa 8 - ^
STACK CFI 1cbe9 .cfa: $rsp 48 +
STACK CFI INIT 1cc02 19 .cfa: $rsp .ra: .cfa 8 - ^
STACK CFI 1cc02 .cfa: $rsp 48 +
STACK CFI INIT 1cc1b 1c .cfa: $rsp .ra: .cfa 8 - ^
STACK CFI 1cc1b .cfa: $rsp 48 +
STACK CFI INIT 1cc37 1c .cfa: $rsp .ra: .cfa 8 - ^
STACK CFI 1cc37 .cfa: $rsp 48 +
STACK CFI INIT 1cc53 1c .cfa: $rsp .ra: .cfa 8 - ^
STACK CFI 1cc53 .cfa: $rsp 48 +
STACK CFI INIT 1cc6f 1c .cfa: $rsp .ra: .cfa 8 - ^
STACK CFI 1cc6f .cfa: $rsp 48 +
STACK CFI INIT 1cc8b 1c .cfa: $rsp .ra: .cfa 8 - ^
STACK CFI 1cc8b .cfa: $rsp 48 +
STACK CFI INIT 1cca7 19 .cfa: $rsp .ra: .cfa 8 - ^
STACK CFI 1cca7 .cfa: $rsp 48 +
STACK CFI INIT 1ccc0 19 .cfa: $rsp .ra: .cfa 8 - ^
STACK CFI 1ccc0 .cfa: $rsp 48 +
STACK CFI INIT 1ccd9 19 .cfa: $rsp .ra: .cfa 8 - ^
STACK CFI 1ccd9 .cfa: $rsp 48 +
STACK CFI INIT 1ccf2 1c .cfa: $rsp .ra: .cfa 8 - ^
STACK CFI 1ccf2 .cfa: $rsp 48 +
STACK CFI INIT 1cd0e 1c .cfa: $rsp .ra: .cfa 8 - ^
STACK CFI 1cd0e .cfa: $rsp 48 +
STACK CFI INIT 1cd2a 1c .cfa: $rsp .ra: .cfa 8 - ^
STACK CFI 1cd2a .cfa: $rsp 48 +
STACK CFI INIT 1cd46 1c .cfa: $rsp .ra: .cfa 8 - ^
STACK CFI 1cd46 .cfa: $rsp 48 +
STACK CFI INIT 1cd62 1c .cfa: $rsp .ra: .cfa 8 - ^
STACK CFI 1cd62 .cfa: $rsp 48 +
STACK CFI INIT 1cd7e 19 .cfa: $rsp .ra: .cfa 8 - ^
STACK CFI 1cd7e .cfa: $rsp 48 +
STACK CFI INIT 1cda0 4a .cfa: $rsp .ra: .cfa 8 - ^
STACK CFI 1cda0 .cfa: $rsp 48 +
STACK CFI INIT 1cdf0 1d .cfa: $rsp .ra: .cfa 8 - ^
STACK CFI 1cdf0 .cfa: $rsp 48 +
STACK CFI INIT 1ce10 1d .cfa: $rsp .ra: .cfa 8 - ^
STACK CFI 1ce10 .cfa: $rsp 48 +
STACK CFI INIT 1ce30 1d .cfa: $rsp .ra: .cfa 8 - ^
STACK CFI 1ce30 .cfa: $rsp 48 +
STACK CFI INIT 1ce50 19 .cfa: $rsp .ra: .cfa 8 - ^
STACK CFI 1ce50 .cfa: $rsp 48 +
STACK CFI INIT 1ce70 19 .cfa: $rsp .ra: .cfa 8 - ^
STACK CFI 1ce70 .cfa: $rsp 48 +
STACK CFI INIT 1ce90 3b .cfa: $rsp .ra: .cfa 8 - ^
STACK CFI 1ce90 .cfa: $rsp 48 +
STACK CFI INIT 1ced0 3b .cfa: $rsp .ra: .cfa 8 - ^
STACK CFI 1ced0 .cfa: $rsp 48 +
STACK CFI INIT 1cf10 32 .cfa: $rsp .ra: .cfa 8 - ^
STACK CFI 1cf10 .cfa: $rsp 48 +
STACK CFI INIT 1cf50 43 .cfa: $rsp .ra: .cfa 8 - ^
STACK CFI 1cf50 .cfa: $rsp 48 +
STACK CFI INIT 1cfa0 8a .cfa: $rsp .ra: .cfa 8 - ^
STACK CFI 1cfa0 .cfa: $rsp 48 +
STACK CFI INIT 1d030 1d .cfa: $rsp .ra: .cfa 8 - ^
STACK CFI 1d030 .cfa: $rsp 48 +
STACK CFI INIT 1d050 7e .cfa: $rsp .ra: .cfa 8 - ^
STACK CFI 1d050 .cfa: $rsp 48 +
STACK CFI INIT 1d0d0 5b .cfa: $rsp .ra: .cfa 8 - ^
STACK CFI 1d0d0 .cfa: $rsp 48 +
STACK CFI INIT 1d130 1c .cfa: $rsp .ra: .cfa 8 - ^
STACK CFI 1d130 .cfa: $rsp 48 +
STACK CFI INIT 1d14c 1c .cfa: $rsp .ra: .cfa 8 - ^
STACK CFI 1d14c .cfa: $rsp 48 +
STACK CFI INIT 1d168 1c .cfa: $rsp .ra: .cfa 8 - ^
STACK CFI 1d168 .cfa: $rsp 48 +
STACK CFI INIT 1d184 19 .cfa: $rsp .ra: .cfa 8 - ^
STACK CFI 1d184 .cfa: $rsp 48 +
STACK CFI INIT 1d19d 1c .cfa: $rsp .ra: .cfa 8 - ^
STACK CFI 1d19d .cfa: $rsp 48 +
STACK CFI INIT 1d1b9 19 .cfa: $rsp .ra: .cfa 8 - ^
STACK CFI 1d1b9 .cfa: $rsp 48 +
STACK CFI INIT 1d1d2 1b .cfa: $rsp .ra: .cfa 8 - ^
STACK CFI 1d1d2 .cfa: $rsp 48 +
STACK CFI INIT 1d1ed 1c .cfa: $rsp .ra: .cfa 8 - ^
STACK CFI 1d1ed .cfa: $rsp 48 +
STACK CFI INIT 1d209 19 .cfa: $rsp .ra: .cfa 8 - ^
STACK CFI 1d209 .cfa: $rsp 48 +
STACK CFI INIT 1d222 18 .cfa: $rsp .ra: .cfa 8 - ^
STACK CFI 1d222 .cfa: $rsp 48 +
STACK CFI INIT 1d23a 18 .cfa: $rsp .ra: .cfa 8 - ^
STACK CFI 1d23a .cfa: $rsp 48 +
STACK CFI INIT 1d252 1c .cfa: $rsp .ra: .cfa 8 - ^
STACK CFI 1d252 .cfa: $rsp 48 +
STACK CFI INIT 1d26e 19 .cfa: $rsp .ra: .cfa 8 - ^
STACK CFI 1d26e .cfa: $rsp 48 +
STACK CFI INIT 1d287 19 .cfa: $rsp .ra: .cfa 8 - ^
STACK CFI 1d287 .cfa: $rsp 48 +
STACK CFI INIT 1d2a0 19 .cfa: $rsp .ra: .cfa 8 - ^
STACK CFI 1d2a0 .cfa: $rsp 48 +
STACK CFI INIT 1d2b9 19 .cfa: $rsp .ra: .cfa 8 - ^
STACK CFI 1d2b9 .cfa: $rsp 48 +
STACK CFI INIT 1d2d2 1b .cfa: $rsp .ra: .cfa 8 - ^
STACK CFI 1d2d2 .cfa: $rsp 48 +
STACK CFI INIT 1d2ed 19 .cfa: $rsp .ra: .cfa 8 - ^
STACK CFI 1d2ed .cfa: $rsp 48 +
STACK CFI INIT 1d306 19 .cfa: $rsp .ra: .cfa 8 - ^
STACK CFI 1d306 .cfa: $rsp 48 +
STACK CFI INIT 1d31f 19 .cfa: $rsp .ra: .cfa 8 - ^
STACK CFI 1d31f .cfa: $rsp 48 +
STACK CFI INIT 1d338 19 .cfa: $rsp .ra: .cfa 8 - ^
STACK CFI 1d338 .cfa: $rsp 48 +
STACK CFI INIT 1d351 19 .cfa: $rsp .ra: .cfa 8 - ^
STACK CFI 1d351 .cfa: $rsp 48 +
STACK CFI INIT 1d36a 1c .cfa: $rsp .ra: .cfa 8 - ^
STACK CFI 1d36a .cfa: $rsp 48 +
STACK CFI INIT 1d386 1b .cfa: $rsp .ra: .cfa 8 - ^
STACK CFI 1d386 .cfa: $rsp 48 +
STACK CFI INIT 1d3b0 19 .cfa: $rsp .ra: .cfa 8 - ^
STACK CFI 1d3b0 .cfa: $rsp 48 +
STACK CFI INIT 1d3d0 19 .cfa: $rsp .ra: .cfa 8 - ^
STACK CFI 1d3d0 .cfa: $rsp 48 +
STACK CFI INIT 1d3f0 1c .cfa: $rsp .ra: .cfa 8 - ^
STACK CFI 1d3f0 .cfa: $rsp 48 +
STACK CFI INIT 1d410 1c .cfa: $rsp .ra: .cfa 8 - ^
STACK CFI 1d410 .cfa: $rsp 48 +
STACK CFI INIT 1d430 1c .cfa: $rsp .ra: .cfa 8 - ^
STACK CFI 1d430 .cfa: $rsp 48 +
STACK CFI INIT 1d450 1c .cfa: $rsp .ra: .cfa 8 - ^
STACK CFI 1d450 .cfa: $rsp 48 +
STACK CFI INIT 1d470 1c .cfa: $rsp .ra: .cfa 8 - ^
STACK CFI 1d470 .cfa: $rsp 48 +
STACK CFI INIT 1d490 1c .cfa: $rsp .ra: .cfa 8 - ^
STACK CFI 1d490 .cfa: $rsp 48 +
STACK CFI INIT 1d4b0 1d .cfa: $rsp .ra: .cfa 8 - ^
STACK CFI 1d4b0 .cfa: $rsp 48 +
STACK CFI INIT 1d4d0 1c .cfa: $rsp .ra: .cfa 8 - ^
STACK CFI 1d4d0 .cfa: $rsp 48 +
STACK CFI INIT 1d4f0 1d .cfa: $rsp .ra: .cfa 8 - ^
STACK CFI 1d4f0 .cfa: $rsp 48 +
STACK CFI INIT 1d510 1c .cfa: $rsp .ra: .cfa 8 - ^
STACK CFI 1d510 .cfa: $rsp 48 +
STACK CFI INIT 1d530 1d .cfa: $rsp .ra: .cfa 8 - ^
STACK CFI 1d530 .cfa: $rsp 48 +
STACK CFI INIT 1d550 1c .cfa: $rsp .ra: .cfa 8 - ^
STACK CFI 1d550 .cfa: $rsp 48 +
STACK CFI INIT 1d570 1d .cfa: $rsp .ra: .cfa 8 - ^
STACK CFI 1d570 .cfa: $rsp 48 +
STACK CFI INIT 1d590 1c .cfa: $rsp .ra: .cfa 8 - ^
STACK CFI 1d590 .cfa: $rsp 48 +
STACK CFI INIT 1d5b0 1d .cfa: $rsp .ra: .cfa 8 - ^
STACK CFI 1d5b0 .cfa: $rsp 48 +
STACK CFI INIT 1d5d0 1c .cfa: $rsp .ra: .cfa 8 - ^
STACK CFI 1d5d0 .cfa: $rsp 48 +
STACK CFI INIT 1d5f0 1c .cfa: $rsp .ra: .cfa 8 - ^
STACK CFI 1d5f0 .cfa: $rsp 48 +
STACK CFI INIT 1d610 1c .cfa: $rsp .ra: .cfa 8 - ^
STACK CFI 1d610 .cfa: $rsp 48 +
STACK CFI INIT 1d630 1d .cfa: $rsp .ra: .cfa 8 - ^
STACK CFI 1d630 .cfa: $rsp 48 +
STACK CFI INIT 1d650 1c .cfa: $rsp .ra: .cfa 8 - ^
STACK CFI 1d650 .cfa: $rsp 48 +
STACK CFI INIT 1d670 1d .cfa: $rsp .ra: .cfa 8 - ^
STACK CFI 1d670 .cfa: $rsp 48 +
STACK CFI INIT 1d690 1c .cfa: $rsp .ra: .cfa 8 - ^
STACK CFI 1d690 .cfa: $rsp 48 +
STACK CFI INIT 1d6b0 1d .cfa: $rsp .ra: .cfa 8 - ^
STACK CFI 1d6b0 .cfa: $rsp 48 +
STACK CFI INIT 1d6d0 1c .cfa: $rsp .ra: .cfa 8 - ^
STACK CFI 1d6d0 .cfa: $rsp 48 +
STACK CFI INIT 1d6f0 1d .cfa: $rsp .ra: .cfa 8 - ^
STACK CFI 1d6f0 .cfa: $rsp 48 +
STACK CFI INIT 1d710 1c .cfa: $rsp .ra: .cfa 8 - ^
STACK CFI 1d710 .cfa: $rsp 48 +
STACK CFI INIT 1d730 1d .cfa: $rsp .ra: .cfa 8 - ^
STACK CFI 1d730 .cfa: $rsp 48 +
STACK CFI INIT 1d750 1c .cfa: $rsp .ra: .cfa 8 - ^
STACK CFI 1d750 .cfa: $rsp 48 +
STACK CFI INIT 1d76c 18 .cfa: $rsp .ra: .cfa 8 - ^
STACK CFI 1d76c .cfa: $rsp 16 +
STACK CFI INIT 1d784 1e .cfa: $rsp .ra: .cfa 8 - ^
STACK CFI 1d784 .cfa: $rsp 48 +
STACK CFI INIT 1d7b0 15 .cfa: $rsp .ra: .cfa 8 - ^
STACK CFI 1d7b0 .cfa: $rsp 48 +
